
TEST_002_Timer_PWN.elf:     file format elf32-littlearm

Sections:
Idx Name          Size      VMA       LMA       File off  Algn
  0 .isr_vector   00000198  08000000  08000000  00010000  2**0
                  CONTENTS, ALLOC, LOAD, READONLY, DATA
  1 .text         0000451c  080001a0  080001a0  000101a0  2**4
                  CONTENTS, ALLOC, LOAD, READONLY, CODE
  2 .rodata       000000c0  080046bc  080046bc  000146bc  2**2
                  CONTENTS, ALLOC, LOAD, READONLY, DATA
  3 .ARM.extab    00000000  0800477c  0800477c  00020068  2**0
                  CONTENTS
  4 .ARM          00000008  0800477c  0800477c  0001477c  2**2
                  CONTENTS, ALLOC, LOAD, READONLY, DATA
  5 .preinit_array 00000000  08004784  08004784  00020068  2**0
                  CONTENTS, ALLOC, LOAD, DATA
  6 .init_array   00000004  08004784  08004784  00014784  2**2
                  CONTENTS, ALLOC, LOAD, DATA
  7 .fini_array   00000004  08004788  08004788  00014788  2**2
                  CONTENTS, ALLOC, LOAD, DATA
  8 .data         00000068  20000000  0800478c  00020000  2**2
                  CONTENTS, ALLOC, LOAD, DATA
  9 .bss          00000200  20000068  080047f4  00020068  2**2
                  ALLOC
 10 ._user_heap_stack 00000600  20000268  080047f4  00020268  2**0
                  ALLOC
 11 .ARM.attributes 00000030  00000000  00000000  00020068  2**0
                  CONTENTS, READONLY
 12 .comment      00000043  00000000  00000000  00020098  2**0
                  CONTENTS, READONLY
 13 .debug_info   0000cf59  00000000  00000000  000200db  2**0
                  CONTENTS, READONLY, DEBUGGING, OCTETS
 14 .debug_abbrev 00001d64  00000000  00000000  0002d034  2**0
                  CONTENTS, READONLY, DEBUGGING, OCTETS
 15 .debug_aranges 00000c90  00000000  00000000  0002ed98  2**3
                  CONTENTS, READONLY, DEBUGGING, OCTETS
 16 .debug_rnglists 000009c8  00000000  00000000  0002fa28  2**0
                  CONTENTS, READONLY, DEBUGGING, OCTETS
 17 .debug_macro  000171e9  00000000  00000000  000303f0  2**0
                  CONTENTS, READONLY, DEBUGGING, OCTETS
 18 .debug_line   0000e198  00000000  00000000  000475d9  2**0
                  CONTENTS, READONLY, DEBUGGING, OCTETS
 19 .debug_str    0008ffae  00000000  00000000  00055771  2**0
                  CONTENTS, READONLY, DEBUGGING, OCTETS
 20 .debug_frame  00003e50  00000000  00000000  000e5720  2**2
                  CONTENTS, READONLY, DEBUGGING, OCTETS
 21 .debug_line_str 00000062  00000000  00000000  000e9570  2**0
                  CONTENTS, READONLY, DEBUGGING, OCTETS

Disassembly of section .text:

080001a0 <__do_global_dtors_aux>:
 80001a0:	b510      	push	{r4, lr}
 80001a2:	4c05      	ldr	r4, [pc, #20]	; (80001b8 <__do_global_dtors_aux+0x18>)
 80001a4:	7823      	ldrb	r3, [r4, #0]
 80001a6:	b933      	cbnz	r3, 80001b6 <__do_global_dtors_aux+0x16>
 80001a8:	4b04      	ldr	r3, [pc, #16]	; (80001bc <__do_global_dtors_aux+0x1c>)
 80001aa:	b113      	cbz	r3, 80001b2 <__do_global_dtors_aux+0x12>
 80001ac:	4804      	ldr	r0, [pc, #16]	; (80001c0 <__do_global_dtors_aux+0x20>)
 80001ae:	f3af 8000 	nop.w
 80001b2:	2301      	movs	r3, #1
 80001b4:	7023      	strb	r3, [r4, #0]
 80001b6:	bd10      	pop	{r4, pc}
 80001b8:	20000068 	.word	0x20000068
 80001bc:	00000000 	.word	0x00000000
 80001c0:	080046a4 	.word	0x080046a4

080001c4 <frame_dummy>:
 80001c4:	b508      	push	{r3, lr}
 80001c6:	4b03      	ldr	r3, [pc, #12]	; (80001d4 <frame_dummy+0x10>)
 80001c8:	b11b      	cbz	r3, 80001d2 <frame_dummy+0xe>
 80001ca:	4903      	ldr	r1, [pc, #12]	; (80001d8 <frame_dummy+0x14>)
 80001cc:	4803      	ldr	r0, [pc, #12]	; (80001dc <frame_dummy+0x18>)
 80001ce:	f3af 8000 	nop.w
 80001d2:	bd08      	pop	{r3, pc}
 80001d4:	00000000 	.word	0x00000000
 80001d8:	2000006c 	.word	0x2000006c
 80001dc:	080046a4 	.word	0x080046a4

080001e0 <memchr>:
 80001e0:	f001 01ff 	and.w	r1, r1, #255	; 0xff
 80001e4:	2a10      	cmp	r2, #16
 80001e6:	db2b      	blt.n	8000240 <memchr+0x60>
 80001e8:	f010 0f07 	tst.w	r0, #7
 80001ec:	d008      	beq.n	8000200 <memchr+0x20>
 80001ee:	f810 3b01 	ldrb.w	r3, [r0], #1
 80001f2:	3a01      	subs	r2, #1
 80001f4:	428b      	cmp	r3, r1
 80001f6:	d02d      	beq.n	8000254 <memchr+0x74>
 80001f8:	f010 0f07 	tst.w	r0, #7
 80001fc:	b342      	cbz	r2, 8000250 <memchr+0x70>
 80001fe:	d1f6      	bne.n	80001ee <memchr+0xe>
 8000200:	b4f0      	push	{r4, r5, r6, r7}
 8000202:	ea41 2101 	orr.w	r1, r1, r1, lsl #8
 8000206:	ea41 4101 	orr.w	r1, r1, r1, lsl #16
 800020a:	f022 0407 	bic.w	r4, r2, #7
 800020e:	f07f 0700 	mvns.w	r7, #0
 8000212:	2300      	movs	r3, #0
 8000214:	e8f0 5602 	ldrd	r5, r6, [r0], #8
 8000218:	3c08      	subs	r4, #8
 800021a:	ea85 0501 	eor.w	r5, r5, r1
 800021e:	ea86 0601 	eor.w	r6, r6, r1
 8000222:	fa85 f547 	uadd8	r5, r5, r7
 8000226:	faa3 f587 	sel	r5, r3, r7
 800022a:	fa86 f647 	uadd8	r6, r6, r7
 800022e:	faa5 f687 	sel	r6, r5, r7
 8000232:	b98e      	cbnz	r6, 8000258 <memchr+0x78>
 8000234:	d1ee      	bne.n	8000214 <memchr+0x34>
 8000236:	bcf0      	pop	{r4, r5, r6, r7}
 8000238:	f001 01ff 	and.w	r1, r1, #255	; 0xff
 800023c:	f002 0207 	and.w	r2, r2, #7
 8000240:	b132      	cbz	r2, 8000250 <memchr+0x70>
 8000242:	f810 3b01 	ldrb.w	r3, [r0], #1
 8000246:	3a01      	subs	r2, #1
 8000248:	ea83 0301 	eor.w	r3, r3, r1
 800024c:	b113      	cbz	r3, 8000254 <memchr+0x74>
 800024e:	d1f8      	bne.n	8000242 <memchr+0x62>
 8000250:	2000      	movs	r0, #0
 8000252:	4770      	bx	lr
 8000254:	3801      	subs	r0, #1
 8000256:	4770      	bx	lr
 8000258:	2d00      	cmp	r5, #0
 800025a:	bf06      	itte	eq
 800025c:	4635      	moveq	r5, r6
 800025e:	3803      	subeq	r0, #3
 8000260:	3807      	subne	r0, #7
 8000262:	f015 0f01 	tst.w	r5, #1
 8000266:	d107      	bne.n	8000278 <memchr+0x98>
 8000268:	3001      	adds	r0, #1
 800026a:	f415 7f80 	tst.w	r5, #256	; 0x100
 800026e:	bf02      	ittt	eq
 8000270:	3001      	addeq	r0, #1
 8000272:	f415 3fc0 	tsteq.w	r5, #98304	; 0x18000
 8000276:	3001      	addeq	r0, #1
 8000278:	bcf0      	pop	{r4, r5, r6, r7}
 800027a:	3801      	subs	r0, #1
 800027c:	4770      	bx	lr
 800027e:	bf00      	nop

08000280 <__aeabi_uldivmod>:
 8000280:	b953      	cbnz	r3, 8000298 <__aeabi_uldivmod+0x18>
 8000282:	b94a      	cbnz	r2, 8000298 <__aeabi_uldivmod+0x18>
 8000284:	2900      	cmp	r1, #0
 8000286:	bf08      	it	eq
 8000288:	2800      	cmpeq	r0, #0
 800028a:	bf1c      	itt	ne
 800028c:	f04f 31ff 	movne.w	r1, #4294967295
 8000290:	f04f 30ff 	movne.w	r0, #4294967295
 8000294:	f000 b970 	b.w	8000578 <__aeabi_idiv0>
 8000298:	f1ad 0c08 	sub.w	ip, sp, #8
 800029c:	e96d ce04 	strd	ip, lr, [sp, #-16]!
 80002a0:	f000 f806 	bl	80002b0 <__udivmoddi4>
 80002a4:	f8dd e004 	ldr.w	lr, [sp, #4]
 80002a8:	e9dd 2302 	ldrd	r2, r3, [sp, #8]
 80002ac:	b004      	add	sp, #16
 80002ae:	4770      	bx	lr

080002b0 <__udivmoddi4>:
 80002b0:	e92d 47f0 	stmdb	sp!, {r4, r5, r6, r7, r8, r9, sl, lr}
 80002b4:	9e08      	ldr	r6, [sp, #32]
 80002b6:	460d      	mov	r5, r1
 80002b8:	4604      	mov	r4, r0
 80002ba:	460f      	mov	r7, r1
 80002bc:	2b00      	cmp	r3, #0
 80002be:	d14a      	bne.n	8000356 <__udivmoddi4+0xa6>
 80002c0:	428a      	cmp	r2, r1
 80002c2:	4694      	mov	ip, r2
 80002c4:	d965      	bls.n	8000392 <__udivmoddi4+0xe2>
 80002c6:	fab2 f382 	clz	r3, r2
 80002ca:	b143      	cbz	r3, 80002de <__udivmoddi4+0x2e>
 80002cc:	fa02 fc03 	lsl.w	ip, r2, r3
 80002d0:	f1c3 0220 	rsb	r2, r3, #32
 80002d4:	409f      	lsls	r7, r3
 80002d6:	fa20 f202 	lsr.w	r2, r0, r2
 80002da:	4317      	orrs	r7, r2
 80002dc:	409c      	lsls	r4, r3
 80002de:	ea4f 4e1c 	mov.w	lr, ip, lsr #16
 80002e2:	fa1f f58c 	uxth.w	r5, ip
 80002e6:	fbb7 f1fe 	udiv	r1, r7, lr
 80002ea:	0c22      	lsrs	r2, r4, #16
 80002ec:	fb0e 7711 	mls	r7, lr, r1, r7
 80002f0:	ea42 4207 	orr.w	r2, r2, r7, lsl #16
 80002f4:	fb01 f005 	mul.w	r0, r1, r5
 80002f8:	4290      	cmp	r0, r2
 80002fa:	d90a      	bls.n	8000312 <__udivmoddi4+0x62>
 80002fc:	eb1c 0202 	adds.w	r2, ip, r2
 8000300:	f101 37ff 	add.w	r7, r1, #4294967295
 8000304:	f080 811c 	bcs.w	8000540 <__udivmoddi4+0x290>
 8000308:	4290      	cmp	r0, r2
 800030a:	f240 8119 	bls.w	8000540 <__udivmoddi4+0x290>
 800030e:	3902      	subs	r1, #2
 8000310:	4462      	add	r2, ip
 8000312:	1a12      	subs	r2, r2, r0
 8000314:	b2a4      	uxth	r4, r4
 8000316:	fbb2 f0fe 	udiv	r0, r2, lr
 800031a:	fb0e 2210 	mls	r2, lr, r0, r2
 800031e:	ea44 4402 	orr.w	r4, r4, r2, lsl #16
 8000322:	fb00 f505 	mul.w	r5, r0, r5
 8000326:	42a5      	cmp	r5, r4
 8000328:	d90a      	bls.n	8000340 <__udivmoddi4+0x90>
 800032a:	eb1c 0404 	adds.w	r4, ip, r4
 800032e:	f100 32ff 	add.w	r2, r0, #4294967295
 8000332:	f080 8107 	bcs.w	8000544 <__udivmoddi4+0x294>
 8000336:	42a5      	cmp	r5, r4
 8000338:	f240 8104 	bls.w	8000544 <__udivmoddi4+0x294>
 800033c:	4464      	add	r4, ip
 800033e:	3802      	subs	r0, #2
 8000340:	ea40 4001 	orr.w	r0, r0, r1, lsl #16
 8000344:	1b64      	subs	r4, r4, r5
 8000346:	2100      	movs	r1, #0
 8000348:	b11e      	cbz	r6, 8000352 <__udivmoddi4+0xa2>
 800034a:	40dc      	lsrs	r4, r3
 800034c:	2300      	movs	r3, #0
 800034e:	e9c6 4300 	strd	r4, r3, [r6]
 8000352:	e8bd 87f0 	ldmia.w	sp!, {r4, r5, r6, r7, r8, r9, sl, pc}
 8000356:	428b      	cmp	r3, r1
 8000358:	d908      	bls.n	800036c <__udivmoddi4+0xbc>
 800035a:	2e00      	cmp	r6, #0
 800035c:	f000 80ed 	beq.w	800053a <__udivmoddi4+0x28a>
 8000360:	2100      	movs	r1, #0
 8000362:	e9c6 0500 	strd	r0, r5, [r6]
 8000366:	4608      	mov	r0, r1
 8000368:	e8bd 87f0 	ldmia.w	sp!, {r4, r5, r6, r7, r8, r9, sl, pc}
 800036c:	fab3 f183 	clz	r1, r3
 8000370:	2900      	cmp	r1, #0
 8000372:	d149      	bne.n	8000408 <__udivmoddi4+0x158>
 8000374:	42ab      	cmp	r3, r5
 8000376:	d302      	bcc.n	800037e <__udivmoddi4+0xce>
 8000378:	4282      	cmp	r2, r0
 800037a:	f200 80f8 	bhi.w	800056e <__udivmoddi4+0x2be>
 800037e:	1a84      	subs	r4, r0, r2
 8000380:	eb65 0203 	sbc.w	r2, r5, r3
 8000384:	2001      	movs	r0, #1
 8000386:	4617      	mov	r7, r2
 8000388:	2e00      	cmp	r6, #0
 800038a:	d0e2      	beq.n	8000352 <__udivmoddi4+0xa2>
 800038c:	e9c6 4700 	strd	r4, r7, [r6]
 8000390:	e7df      	b.n	8000352 <__udivmoddi4+0xa2>
 8000392:	b902      	cbnz	r2, 8000396 <__udivmoddi4+0xe6>
 8000394:	deff      	udf	#255	; 0xff
 8000396:	fab2 f382 	clz	r3, r2
 800039a:	2b00      	cmp	r3, #0
 800039c:	f040 8090 	bne.w	80004c0 <__udivmoddi4+0x210>
 80003a0:	1a8a      	subs	r2, r1, r2
 80003a2:	ea4f 471c 	mov.w	r7, ip, lsr #16
 80003a6:	fa1f fe8c 	uxth.w	lr, ip
 80003aa:	2101      	movs	r1, #1
 80003ac:	fbb2 f5f7 	udiv	r5, r2, r7
 80003b0:	fb07 2015 	mls	r0, r7, r5, r2
 80003b4:	0c22      	lsrs	r2, r4, #16
 80003b6:	ea42 4200 	orr.w	r2, r2, r0, lsl #16
 80003ba:	fb0e f005 	mul.w	r0, lr, r5
 80003be:	4290      	cmp	r0, r2
 80003c0:	d908      	bls.n	80003d4 <__udivmoddi4+0x124>
 80003c2:	eb1c 0202 	adds.w	r2, ip, r2
 80003c6:	f105 38ff 	add.w	r8, r5, #4294967295
 80003ca:	d202      	bcs.n	80003d2 <__udivmoddi4+0x122>
 80003cc:	4290      	cmp	r0, r2
 80003ce:	f200 80cb 	bhi.w	8000568 <__udivmoddi4+0x2b8>
 80003d2:	4645      	mov	r5, r8
 80003d4:	1a12      	subs	r2, r2, r0
 80003d6:	b2a4      	uxth	r4, r4
 80003d8:	fbb2 f0f7 	udiv	r0, r2, r7
 80003dc:	fb07 2210 	mls	r2, r7, r0, r2
 80003e0:	ea44 4402 	orr.w	r4, r4, r2, lsl #16
 80003e4:	fb0e fe00 	mul.w	lr, lr, r0
 80003e8:	45a6      	cmp	lr, r4
 80003ea:	d908      	bls.n	80003fe <__udivmoddi4+0x14e>
 80003ec:	eb1c 0404 	adds.w	r4, ip, r4
 80003f0:	f100 32ff 	add.w	r2, r0, #4294967295
 80003f4:	d202      	bcs.n	80003fc <__udivmoddi4+0x14c>
 80003f6:	45a6      	cmp	lr, r4
 80003f8:	f200 80bb 	bhi.w	8000572 <__udivmoddi4+0x2c2>
 80003fc:	4610      	mov	r0, r2
 80003fe:	eba4 040e 	sub.w	r4, r4, lr
 8000402:	ea40 4005 	orr.w	r0, r0, r5, lsl #16
 8000406:	e79f      	b.n	8000348 <__udivmoddi4+0x98>
 8000408:	f1c1 0720 	rsb	r7, r1, #32
 800040c:	408b      	lsls	r3, r1
 800040e:	fa22 fc07 	lsr.w	ip, r2, r7
 8000412:	ea4c 0c03 	orr.w	ip, ip, r3
 8000416:	fa05 f401 	lsl.w	r4, r5, r1
 800041a:	fa20 f307 	lsr.w	r3, r0, r7
 800041e:	40fd      	lsrs	r5, r7
 8000420:	ea4f 491c 	mov.w	r9, ip, lsr #16
 8000424:	4323      	orrs	r3, r4
 8000426:	fbb5 f8f9 	udiv	r8, r5, r9
 800042a:	fa1f fe8c 	uxth.w	lr, ip
 800042e:	fb09 5518 	mls	r5, r9, r8, r5
 8000432:	0c1c      	lsrs	r4, r3, #16
 8000434:	ea44 4405 	orr.w	r4, r4, r5, lsl #16
 8000438:	fb08 f50e 	mul.w	r5, r8, lr
 800043c:	42a5      	cmp	r5, r4
 800043e:	fa02 f201 	lsl.w	r2, r2, r1
 8000442:	fa00 f001 	lsl.w	r0, r0, r1
 8000446:	d90b      	bls.n	8000460 <__udivmoddi4+0x1b0>
 8000448:	eb1c 0404 	adds.w	r4, ip, r4
 800044c:	f108 3aff 	add.w	sl, r8, #4294967295
 8000450:	f080 8088 	bcs.w	8000564 <__udivmoddi4+0x2b4>
 8000454:	42a5      	cmp	r5, r4
 8000456:	f240 8085 	bls.w	8000564 <__udivmoddi4+0x2b4>
 800045a:	f1a8 0802 	sub.w	r8, r8, #2
 800045e:	4464      	add	r4, ip
 8000460:	1b64      	subs	r4, r4, r5
 8000462:	b29d      	uxth	r5, r3
 8000464:	fbb4 f3f9 	udiv	r3, r4, r9
 8000468:	fb09 4413 	mls	r4, r9, r3, r4
 800046c:	ea45 4404 	orr.w	r4, r5, r4, lsl #16
 8000470:	fb03 fe0e 	mul.w	lr, r3, lr
 8000474:	45a6      	cmp	lr, r4
 8000476:	d908      	bls.n	800048a <__udivmoddi4+0x1da>
 8000478:	eb1c 0404 	adds.w	r4, ip, r4
 800047c:	f103 35ff 	add.w	r5, r3, #4294967295
 8000480:	d26c      	bcs.n	800055c <__udivmoddi4+0x2ac>
 8000482:	45a6      	cmp	lr, r4
 8000484:	d96a      	bls.n	800055c <__udivmoddi4+0x2ac>
 8000486:	3b02      	subs	r3, #2
 8000488:	4464      	add	r4, ip
 800048a:	ea43 4308 	orr.w	r3, r3, r8, lsl #16
 800048e:	fba3 9502 	umull	r9, r5, r3, r2
 8000492:	eba4 040e 	sub.w	r4, r4, lr
 8000496:	42ac      	cmp	r4, r5
 8000498:	46c8      	mov	r8, r9
 800049a:	46ae      	mov	lr, r5
 800049c:	d356      	bcc.n	800054c <__udivmoddi4+0x29c>
 800049e:	d053      	beq.n	8000548 <__udivmoddi4+0x298>
 80004a0:	b156      	cbz	r6, 80004b8 <__udivmoddi4+0x208>
 80004a2:	ebb0 0208 	subs.w	r2, r0, r8
 80004a6:	eb64 040e 	sbc.w	r4, r4, lr
 80004aa:	fa04 f707 	lsl.w	r7, r4, r7
 80004ae:	40ca      	lsrs	r2, r1
 80004b0:	40cc      	lsrs	r4, r1
 80004b2:	4317      	orrs	r7, r2
 80004b4:	e9c6 7400 	strd	r7, r4, [r6]
 80004b8:	4618      	mov	r0, r3
 80004ba:	2100      	movs	r1, #0
 80004bc:	e8bd 87f0 	ldmia.w	sp!, {r4, r5, r6, r7, r8, r9, sl, pc}
 80004c0:	f1c3 0120 	rsb	r1, r3, #32
 80004c4:	fa02 fc03 	lsl.w	ip, r2, r3
 80004c8:	fa20 f201 	lsr.w	r2, r0, r1
 80004cc:	fa25 f101 	lsr.w	r1, r5, r1
 80004d0:	409d      	lsls	r5, r3
 80004d2:	432a      	orrs	r2, r5
 80004d4:	ea4f 471c 	mov.w	r7, ip, lsr #16
 80004d8:	fa1f fe8c 	uxth.w	lr, ip
 80004dc:	fbb1 f0f7 	udiv	r0, r1, r7
 80004e0:	fb07 1510 	mls	r5, r7, r0, r1
 80004e4:	0c11      	lsrs	r1, r2, #16
 80004e6:	ea41 4105 	orr.w	r1, r1, r5, lsl #16
 80004ea:	fb00 f50e 	mul.w	r5, r0, lr
 80004ee:	428d      	cmp	r5, r1
 80004f0:	fa04 f403 	lsl.w	r4, r4, r3
 80004f4:	d908      	bls.n	8000508 <__udivmoddi4+0x258>
 80004f6:	eb1c 0101 	adds.w	r1, ip, r1
 80004fa:	f100 38ff 	add.w	r8, r0, #4294967295
 80004fe:	d22f      	bcs.n	8000560 <__udivmoddi4+0x2b0>
 8000500:	428d      	cmp	r5, r1
 8000502:	d92d      	bls.n	8000560 <__udivmoddi4+0x2b0>
 8000504:	3802      	subs	r0, #2
 8000506:	4461      	add	r1, ip
 8000508:	1b49      	subs	r1, r1, r5
 800050a:	b292      	uxth	r2, r2
 800050c:	fbb1 f5f7 	udiv	r5, r1, r7
 8000510:	fb07 1115 	mls	r1, r7, r5, r1
 8000514:	ea42 4201 	orr.w	r2, r2, r1, lsl #16
 8000518:	fb05 f10e 	mul.w	r1, r5, lr
 800051c:	4291      	cmp	r1, r2
 800051e:	d908      	bls.n	8000532 <__udivmoddi4+0x282>
 8000520:	eb1c 0202 	adds.w	r2, ip, r2
 8000524:	f105 38ff 	add.w	r8, r5, #4294967295
 8000528:	d216      	bcs.n	8000558 <__udivmoddi4+0x2a8>
 800052a:	4291      	cmp	r1, r2
 800052c:	d914      	bls.n	8000558 <__udivmoddi4+0x2a8>
 800052e:	3d02      	subs	r5, #2
 8000530:	4462      	add	r2, ip
 8000532:	1a52      	subs	r2, r2, r1
 8000534:	ea45 4100 	orr.w	r1, r5, r0, lsl #16
 8000538:	e738      	b.n	80003ac <__udivmoddi4+0xfc>
 800053a:	4631      	mov	r1, r6
 800053c:	4630      	mov	r0, r6
 800053e:	e708      	b.n	8000352 <__udivmoddi4+0xa2>
 8000540:	4639      	mov	r1, r7
 8000542:	e6e6      	b.n	8000312 <__udivmoddi4+0x62>
 8000544:	4610      	mov	r0, r2
 8000546:	e6fb      	b.n	8000340 <__udivmoddi4+0x90>
 8000548:	4548      	cmp	r0, r9
 800054a:	d2a9      	bcs.n	80004a0 <__udivmoddi4+0x1f0>
 800054c:	ebb9 0802 	subs.w	r8, r9, r2
 8000550:	eb65 0e0c 	sbc.w	lr, r5, ip
 8000554:	3b01      	subs	r3, #1
 8000556:	e7a3      	b.n	80004a0 <__udivmoddi4+0x1f0>
 8000558:	4645      	mov	r5, r8
 800055a:	e7ea      	b.n	8000532 <__udivmoddi4+0x282>
 800055c:	462b      	mov	r3, r5
 800055e:	e794      	b.n	800048a <__udivmoddi4+0x1da>
 8000560:	4640      	mov	r0, r8
 8000562:	e7d1      	b.n	8000508 <__udivmoddi4+0x258>
 8000564:	46d0      	mov	r8, sl
 8000566:	e77b      	b.n	8000460 <__udivmoddi4+0x1b0>
 8000568:	3d02      	subs	r5, #2
 800056a:	4462      	add	r2, ip
 800056c:	e732      	b.n	80003d4 <__udivmoddi4+0x124>
 800056e:	4608      	mov	r0, r1
 8000570:	e70a      	b.n	8000388 <__udivmoddi4+0xd8>
 8000572:	4464      	add	r4, ip
 8000574:	3802      	subs	r0, #2
 8000576:	e742      	b.n	80003fe <__udivmoddi4+0x14e>

08000578 <__aeabi_idiv0>:
 8000578:	4770      	bx	lr
 800057a:	bf00      	nop

0800057c <main>:
/**
  * @brief  The application entry point.
  * @retval int
  */
int main(void)
{
 800057c:	b580      	push	{r7, lr}
 800057e:	af00      	add	r7, sp, #0
  /* USER CODE END 1 */

  /* MCU Configuration--------------------------------------------------------*/

  /* Reset of all peripherals, Initializes the Flash interface and the Systick. */
  HAL_Init();
 8000580:	f000 fbf6 	bl	8000d70 <HAL_Init>
  /* USER CODE BEGIN Init */

  /* USER CODE END Init */

  /* Configure the system clock */
  SystemClock_Config();
 8000584:	f000 f826 	bl	80005d4 <SystemClock_Config>
  /* USER CODE BEGIN SysInit */

  /* USER CODE END SysInit */

  /* Initialize all configured peripherals */
  MX_GPIO_Init();
 8000588:	f000 f92e 	bl	80007e8 <MX_GPIO_Init>
  MX_USART2_UART_Init();
 800058c:	f000 f902 	bl	8000794 <MX_USART2_UART_Init>
  MX_TIM2_Init();
 8000590:	f000 f88a 	bl	80006a8 <MX_TIM2_Init>
  /* USER CODE BEGIN 2 */
  ProgramStart("Timer_PWN : LED(LD2) Control");
 8000594:	480d      	ldr	r0, [pc, #52]	; (80005cc <main+0x50>)
 8000596:	f000 f9d9 	bl	800094c <ProgramStart>
  HAL_TIM_PWM_Start(&htim2, TIM_CHANNEL_1);	//PWM out to LD2
 800059a:	2100      	movs	r1, #0
 800059c:	480c      	ldr	r0, [pc, #48]	; (80005d0 <main+0x54>)
 800059e:	f001 fc3f 	bl	8001e20 <HAL_TIM_PWM_Start>

  /* Infinite loop */
  /* USER CODE BEGIN WHILE */
  while (1)
  {
	  htim2.Instance->CCR1++;
 80005a2:	4b0b      	ldr	r3, [pc, #44]	; (80005d0 <main+0x54>)
 80005a4:	681b      	ldr	r3, [r3, #0]
 80005a6:	6b5a      	ldr	r2, [r3, #52]	; 0x34
 80005a8:	3201      	adds	r2, #1
 80005aa:	635a      	str	r2, [r3, #52]	; 0x34
	  if(htim2.Instance->CCR1 > htim2.Instance->ARR)
 80005ac:	4b08      	ldr	r3, [pc, #32]	; (80005d0 <main+0x54>)
 80005ae:	681b      	ldr	r3, [r3, #0]
 80005b0:	6b5a      	ldr	r2, [r3, #52]	; 0x34
 80005b2:	4b07      	ldr	r3, [pc, #28]	; (80005d0 <main+0x54>)
 80005b4:	681b      	ldr	r3, [r3, #0]
 80005b6:	6adb      	ldr	r3, [r3, #44]	; 0x2c
 80005b8:	429a      	cmp	r2, r3
 80005ba:	d903      	bls.n	80005c4 <main+0x48>
	  {
		  htim2.Instance->CCR1 = 0;
 80005bc:	4b04      	ldr	r3, [pc, #16]	; (80005d0 <main+0x54>)
 80005be:	681b      	ldr	r3, [r3, #0]
 80005c0:	2200      	movs	r2, #0
 80005c2:	635a      	str	r2, [r3, #52]	; 0x34
	  }
	  HAL_Delay(10);
 80005c4:	200a      	movs	r0, #10
 80005c6:	f000 fc45 	bl	8000e54 <HAL_Delay>
	  htim2.Instance->CCR1++;
 80005ca:	e7ea      	b.n	80005a2 <main+0x26>
 80005cc:	080046bc 	.word	0x080046bc
 80005d0:	20000084 	.word	0x20000084

080005d4 <SystemClock_Config>:
/**
  * @brief System Clock Configuration
  * @retval None
  */
void SystemClock_Config(void)
{
 80005d4:	b580      	push	{r7, lr}
 80005d6:	b094      	sub	sp, #80	; 0x50
 80005d8:	af00      	add	r7, sp, #0
  RCC_OscInitTypeDef RCC_OscInitStruct = {0};
 80005da:	f107 0320 	add.w	r3, r7, #32
 80005de:	2230      	movs	r2, #48	; 0x30
 80005e0:	2100      	movs	r1, #0
 80005e2:	4618      	mov	r0, r3
 80005e4:	f003 f914 	bl	8003810 <memset>
  RCC_ClkInitTypeDef RCC_ClkInitStruct = {0};
 80005e8:	f107 030c 	add.w	r3, r7, #12
 80005ec:	2200      	movs	r2, #0
 80005ee:	601a      	str	r2, [r3, #0]
 80005f0:	605a      	str	r2, [r3, #4]
 80005f2:	609a      	str	r2, [r3, #8]
 80005f4:	60da      	str	r2, [r3, #12]
 80005f6:	611a      	str	r2, [r3, #16]

  /** Configure the main internal regulator output voltage
  */
  __HAL_RCC_PWR_CLK_ENABLE();
 80005f8:	2300      	movs	r3, #0
 80005fa:	60bb      	str	r3, [r7, #8]
 80005fc:	4b28      	ldr	r3, [pc, #160]	; (80006a0 <SystemClock_Config+0xcc>)
 80005fe:	6c1b      	ldr	r3, [r3, #64]	; 0x40
 8000600:	4a27      	ldr	r2, [pc, #156]	; (80006a0 <SystemClock_Config+0xcc>)
 8000602:	f043 5380 	orr.w	r3, r3, #268435456	; 0x10000000
 8000606:	6413      	str	r3, [r2, #64]	; 0x40
 8000608:	4b25      	ldr	r3, [pc, #148]	; (80006a0 <SystemClock_Config+0xcc>)
 800060a:	6c1b      	ldr	r3, [r3, #64]	; 0x40
 800060c:	f003 5380 	and.w	r3, r3, #268435456	; 0x10000000
 8000610:	60bb      	str	r3, [r7, #8]
 8000612:	68bb      	ldr	r3, [r7, #8]
  __HAL_PWR_VOLTAGESCALING_CONFIG(PWR_REGULATOR_VOLTAGE_SCALE1);
 8000614:	2300      	movs	r3, #0
 8000616:	607b      	str	r3, [r7, #4]
 8000618:	4b22      	ldr	r3, [pc, #136]	; (80006a4 <SystemClock_Config+0xd0>)
 800061a:	681b      	ldr	r3, [r3, #0]
 800061c:	4a21      	ldr	r2, [pc, #132]	; (80006a4 <SystemClock_Config+0xd0>)
 800061e:	f443 4340 	orr.w	r3, r3, #49152	; 0xc000
 8000622:	6013      	str	r3, [r2, #0]
 8000624:	4b1f      	ldr	r3, [pc, #124]	; (80006a4 <SystemClock_Config+0xd0>)
 8000626:	681b      	ldr	r3, [r3, #0]
 8000628:	f403 4340 	and.w	r3, r3, #49152	; 0xc000
 800062c:	607b      	str	r3, [r7, #4]
 800062e:	687b      	ldr	r3, [r7, #4]

  /** Initializes the RCC Oscillators according to the specified parameters
  * in the RCC_OscInitTypeDef structure.
  */
  RCC_OscInitStruct.OscillatorType = RCC_OSCILLATORTYPE_HSI;
 8000630:	2302      	movs	r3, #2
 8000632:	623b      	str	r3, [r7, #32]
  RCC_OscInitStruct.HSIState = RCC_HSI_ON;
 8000634:	2301      	movs	r3, #1
 8000636:	62fb      	str	r3, [r7, #44]	; 0x2c
  RCC_OscInitStruct.HSICalibrationValue = RCC_HSICALIBRATION_DEFAULT;
 8000638:	2310      	movs	r3, #16
 800063a:	633b      	str	r3, [r7, #48]	; 0x30
  RCC_OscInitStruct.PLL.PLLState = RCC_PLL_ON;
 800063c:	2302      	movs	r3, #2
 800063e:	63bb      	str	r3, [r7, #56]	; 0x38
  RCC_OscInitStruct.PLL.PLLSource = RCC_PLLSOURCE_HSI;
 8000640:	2300      	movs	r3, #0
 8000642:	63fb      	str	r3, [r7, #60]	; 0x3c
  RCC_OscInitStruct.PLL.PLLM = 16;
 8000644:	2310      	movs	r3, #16
 8000646:	643b      	str	r3, [r7, #64]	; 0x40
  RCC_OscInitStruct.PLL.PLLN = 336;
 8000648:	f44f 73a8 	mov.w	r3, #336	; 0x150
 800064c:	647b      	str	r3, [r7, #68]	; 0x44
  RCC_OscInitStruct.PLL.PLLP = RCC_PLLP_DIV4;
 800064e:	2304      	movs	r3, #4
 8000650:	64bb      	str	r3, [r7, #72]	; 0x48
  RCC_OscInitStruct.PLL.PLLQ = 4;
 8000652:	2304      	movs	r3, #4
 8000654:	64fb      	str	r3, [r7, #76]	; 0x4c
  if (HAL_RCC_OscConfig(&RCC_OscInitStruct) != HAL_OK)
 8000656:	f107 0320 	add.w	r3, r7, #32
 800065a:	4618      	mov	r0, r3
 800065c:	f000 fea0 	bl	80013a0 <HAL_RCC_OscConfig>
 8000660:	4603      	mov	r3, r0
 8000662:	2b00      	cmp	r3, #0
 8000664:	d001      	beq.n	800066a <SystemClock_Config+0x96>
  {
    Error_Handler();
 8000666:	f000 f919 	bl	800089c <Error_Handler>
  }

  /** Initializes the CPU, AHB and APB buses clocks
  */
  RCC_ClkInitStruct.ClockType = RCC_CLOCKTYPE_HCLK|RCC_CLOCKTYPE_SYSCLK
 800066a:	230f      	movs	r3, #15
 800066c:	60fb      	str	r3, [r7, #12]
                              |RCC_CLOCKTYPE_PCLK1|RCC_CLOCKTYPE_PCLK2;
  RCC_ClkInitStruct.SYSCLKSource = RCC_SYSCLKSOURCE_PLLCLK;
 800066e:	2302      	movs	r3, #2
 8000670:	613b      	str	r3, [r7, #16]
  RCC_ClkInitStruct.AHBCLKDivider = RCC_SYSCLK_DIV1;
 8000672:	2300      	movs	r3, #0
 8000674:	617b      	str	r3, [r7, #20]
  RCC_ClkInitStruct.APB1CLKDivider = RCC_HCLK_DIV2;
 8000676:	f44f 5380 	mov.w	r3, #4096	; 0x1000
 800067a:	61bb      	str	r3, [r7, #24]
  RCC_ClkInitStruct.APB2CLKDivider = RCC_HCLK_DIV1;
 800067c:	2300      	movs	r3, #0
 800067e:	61fb      	str	r3, [r7, #28]

  if (HAL_RCC_ClockConfig(&RCC_ClkInitStruct, FLASH_LATENCY_2) != HAL_OK)
 8000680:	f107 030c 	add.w	r3, r7, #12
 8000684:	2102      	movs	r1, #2
 8000686:	4618      	mov	r0, r3
 8000688:	f001 f902 	bl	8001890 <HAL_RCC_ClockConfig>
 800068c:	4603      	mov	r3, r0
 800068e:	2b00      	cmp	r3, #0
 8000690:	d001      	beq.n	8000696 <SystemClock_Config+0xc2>
  {
    Error_Handler();
 8000692:	f000 f903 	bl	800089c <Error_Handler>
  }
}
 8000696:	bf00      	nop
 8000698:	3750      	adds	r7, #80	; 0x50
 800069a:	46bd      	mov	sp, r7
 800069c:	bd80      	pop	{r7, pc}
 800069e:	bf00      	nop
 80006a0:	40023800 	.word	0x40023800
 80006a4:	40007000 	.word	0x40007000

080006a8 <MX_TIM2_Init>:
  * @brief TIM2 Initialization Function
  * @param None
  * @retval None
  */
static void MX_TIM2_Init(void)
{
 80006a8:	b580      	push	{r7, lr}
 80006aa:	b08e      	sub	sp, #56	; 0x38
 80006ac:	af00      	add	r7, sp, #0

  /* USER CODE BEGIN TIM2_Init 0 */

  /* USER CODE END TIM2_Init 0 */

  TIM_ClockConfigTypeDef sClockSourceConfig = {0};
 80006ae:	f107 0328 	add.w	r3, r7, #40	; 0x28
 80006b2:	2200      	movs	r2, #0
 80006b4:	601a      	str	r2, [r3, #0]
 80006b6:	605a      	str	r2, [r3, #4]
 80006b8:	609a      	str	r2, [r3, #8]
 80006ba:	60da      	str	r2, [r3, #12]
  TIM_MasterConfigTypeDef sMasterConfig = {0};
 80006bc:	f107 0320 	add.w	r3, r7, #32
 80006c0:	2200      	movs	r2, #0
 80006c2:	601a      	str	r2, [r3, #0]
 80006c4:	605a      	str	r2, [r3, #4]
  TIM_OC_InitTypeDef sConfigOC = {0};
 80006c6:	1d3b      	adds	r3, r7, #4
 80006c8:	2200      	movs	r2, #0
 80006ca:	601a      	str	r2, [r3, #0]
 80006cc:	605a      	str	r2, [r3, #4]
 80006ce:	609a      	str	r2, [r3, #8]
 80006d0:	60da      	str	r2, [r3, #12]
 80006d2:	611a      	str	r2, [r3, #16]
 80006d4:	615a      	str	r2, [r3, #20]
 80006d6:	619a      	str	r2, [r3, #24]

  /* USER CODE BEGIN TIM2_Init 1 */

  /* USER CODE END TIM2_Init 1 */
  htim2.Instance = TIM2;
 80006d8:	4b2d      	ldr	r3, [pc, #180]	; (8000790 <MX_TIM2_Init+0xe8>)
 80006da:	f04f 4280 	mov.w	r2, #1073741824	; 0x40000000
 80006de:	601a      	str	r2, [r3, #0]
  htim2.Init.Prescaler = 84-1;
 80006e0:	4b2b      	ldr	r3, [pc, #172]	; (8000790 <MX_TIM2_Init+0xe8>)
 80006e2:	2253      	movs	r2, #83	; 0x53
 80006e4:	605a      	str	r2, [r3, #4]
  htim2.Init.CounterMode = TIM_COUNTERMODE_UP;
 80006e6:	4b2a      	ldr	r3, [pc, #168]	; (8000790 <MX_TIM2_Init+0xe8>)
 80006e8:	2200      	movs	r2, #0
 80006ea:	609a      	str	r2, [r3, #8]
  htim2.Init.Period = 1000-1;
 80006ec:	4b28      	ldr	r3, [pc, #160]	; (8000790 <MX_TIM2_Init+0xe8>)
 80006ee:	f240 32e7 	movw	r2, #999	; 0x3e7
 80006f2:	60da      	str	r2, [r3, #12]
  htim2.Init.ClockDivision = TIM_CLOCKDIVISION_DIV1;
 80006f4:	4b26      	ldr	r3, [pc, #152]	; (8000790 <MX_TIM2_Init+0xe8>)
 80006f6:	2200      	movs	r2, #0
 80006f8:	611a      	str	r2, [r3, #16]
  htim2.Init.AutoReloadPreload = TIM_AUTORELOAD_PRELOAD_DISABLE;
 80006fa:	4b25      	ldr	r3, [pc, #148]	; (8000790 <MX_TIM2_Init+0xe8>)
 80006fc:	2200      	movs	r2, #0
 80006fe:	619a      	str	r2, [r3, #24]
  if (HAL_TIM_Base_Init(&htim2) != HAL_OK)
 8000700:	4823      	ldr	r0, [pc, #140]	; (8000790 <MX_TIM2_Init+0xe8>)
 8000702:	f001 fae5 	bl	8001cd0 <HAL_TIM_Base_Init>
 8000706:	4603      	mov	r3, r0
 8000708:	2b00      	cmp	r3, #0
 800070a:	d001      	beq.n	8000710 <MX_TIM2_Init+0x68>
  {
    Error_Handler();
 800070c:	f000 f8c6 	bl	800089c <Error_Handler>
  }
  sClockSourceConfig.ClockSource = TIM_CLOCKSOURCE_INTERNAL;
 8000710:	f44f 5380 	mov.w	r3, #4096	; 0x1000
 8000714:	62bb      	str	r3, [r7, #40]	; 0x28
  if (HAL_TIM_ConfigClockSource(&htim2, &sClockSourceConfig) != HAL_OK)
 8000716:	f107 0328 	add.w	r3, r7, #40	; 0x28
 800071a:	4619      	mov	r1, r3
 800071c:	481c      	ldr	r0, [pc, #112]	; (8000790 <MX_TIM2_Init+0xe8>)
 800071e:	f001 fcf1 	bl	8002104 <HAL_TIM_ConfigClockSource>
 8000722:	4603      	mov	r3, r0
 8000724:	2b00      	cmp	r3, #0
 8000726:	d001      	beq.n	800072c <MX_TIM2_Init+0x84>
  {
    Error_Handler();
 8000728:	f000 f8b8 	bl	800089c <Error_Handler>
  }
  if (HAL_TIM_PWM_Init(&htim2) != HAL_OK)
 800072c:	4818      	ldr	r0, [pc, #96]	; (8000790 <MX_TIM2_Init+0xe8>)
 800072e:	f001 fb1e 	bl	8001d6e <HAL_TIM_PWM_Init>
 8000732:	4603      	mov	r3, r0
 8000734:	2b00      	cmp	r3, #0
 8000736:	d001      	beq.n	800073c <MX_TIM2_Init+0x94>
  {
    Error_Handler();
 8000738:	f000 f8b0 	bl	800089c <Error_Handler>
  }
  sMasterConfig.MasterOutputTrigger = TIM_TRGO_RESET;
 800073c:	2300      	movs	r3, #0
 800073e:	623b      	str	r3, [r7, #32]
  sMasterConfig.MasterSlaveMode = TIM_MASTERSLAVEMODE_DISABLE;
 8000740:	2300      	movs	r3, #0
 8000742:	627b      	str	r3, [r7, #36]	; 0x24
  if (HAL_TIMEx_MasterConfigSynchronization(&htim2, &sMasterConfig) != HAL_OK)
 8000744:	f107 0320 	add.w	r3, r7, #32
 8000748:	4619      	mov	r1, r3
 800074a:	4811      	ldr	r0, [pc, #68]	; (8000790 <MX_TIM2_Init+0xe8>)
 800074c:	f002 f87a 	bl	8002844 <HAL_TIMEx_MasterConfigSynchronization>
 8000750:	4603      	mov	r3, r0
 8000752:	2b00      	cmp	r3, #0
 8000754:	d001      	beq.n	800075a <MX_TIM2_Init+0xb2>
  {
    Error_Handler();
 8000756:	f000 f8a1 	bl	800089c <Error_Handler>
  }
  sConfigOC.OCMode = TIM_OCMODE_PWM1;
 800075a:	2360      	movs	r3, #96	; 0x60
 800075c:	607b      	str	r3, [r7, #4]
  sConfigOC.Pulse = 0;
 800075e:	2300      	movs	r3, #0
 8000760:	60bb      	str	r3, [r7, #8]
  sConfigOC.OCPolarity = TIM_OCPOLARITY_HIGH;
 8000762:	2300      	movs	r3, #0
 8000764:	60fb      	str	r3, [r7, #12]
  sConfigOC.OCFastMode = TIM_OCFAST_DISABLE;
 8000766:	2300      	movs	r3, #0
 8000768:	617b      	str	r3, [r7, #20]
  if (HAL_TIM_PWM_ConfigChannel(&htim2, &sConfigOC, TIM_CHANNEL_1) != HAL_OK)
 800076a:	1d3b      	adds	r3, r7, #4
 800076c:	2200      	movs	r2, #0
 800076e:	4619      	mov	r1, r3
 8000770:	4807      	ldr	r0, [pc, #28]	; (8000790 <MX_TIM2_Init+0xe8>)
 8000772:	f001 fc05 	bl	8001f80 <HAL_TIM_PWM_ConfigChannel>
 8000776:	4603      	mov	r3, r0
 8000778:	2b00      	cmp	r3, #0
 800077a:	d001      	beq.n	8000780 <MX_TIM2_Init+0xd8>
  {
    Error_Handler();
 800077c:	f000 f88e 	bl	800089c <Error_Handler>
  }
  /* USER CODE BEGIN TIM2_Init 2 */

  /* USER CODE END TIM2_Init 2 */
  HAL_TIM_MspPostInit(&htim2);
 8000780:	4803      	ldr	r0, [pc, #12]	; (8000790 <MX_TIM2_Init+0xe8>)
 8000782:	f000 f96b 	bl	8000a5c <HAL_TIM_MspPostInit>

}
 8000786:	bf00      	nop
 8000788:	3738      	adds	r7, #56	; 0x38
 800078a:	46bd      	mov	sp, r7
 800078c:	bd80      	pop	{r7, pc}
 800078e:	bf00      	nop
 8000790:	20000084 	.word	0x20000084

08000794 <MX_USART2_UART_Init>:
  * @brief USART2 Initialization Function
  * @param None
  * @retval None
  */
static void MX_USART2_UART_Init(void)
{
 8000794:	b580      	push	{r7, lr}
 8000796:	af00      	add	r7, sp, #0
  /* USER CODE END USART2_Init 0 */

  /* USER CODE BEGIN USART2_Init 1 */

  /* USER CODE END USART2_Init 1 */
  huart2.Instance = USART2;
 8000798:	4b11      	ldr	r3, [pc, #68]	; (80007e0 <MX_USART2_UART_Init+0x4c>)
 800079a:	4a12      	ldr	r2, [pc, #72]	; (80007e4 <MX_USART2_UART_Init+0x50>)
 800079c:	601a      	str	r2, [r3, #0]
  huart2.Init.BaudRate = 115200;
 800079e:	4b10      	ldr	r3, [pc, #64]	; (80007e0 <MX_USART2_UART_Init+0x4c>)
 80007a0:	f44f 32e1 	mov.w	r2, #115200	; 0x1c200
 80007a4:	605a      	str	r2, [r3, #4]
  huart2.Init.WordLength = UART_WORDLENGTH_8B;
 80007a6:	4b0e      	ldr	r3, [pc, #56]	; (80007e0 <MX_USART2_UART_Init+0x4c>)
 80007a8:	2200      	movs	r2, #0
 80007aa:	609a      	str	r2, [r3, #8]
  huart2.Init.StopBits = UART_STOPBITS_1;
 80007ac:	4b0c      	ldr	r3, [pc, #48]	; (80007e0 <MX_USART2_UART_Init+0x4c>)
 80007ae:	2200      	movs	r2, #0
 80007b0:	60da      	str	r2, [r3, #12]
  huart2.Init.Parity = UART_PARITY_NONE;
 80007b2:	4b0b      	ldr	r3, [pc, #44]	; (80007e0 <MX_USART2_UART_Init+0x4c>)
 80007b4:	2200      	movs	r2, #0
 80007b6:	611a      	str	r2, [r3, #16]
  huart2.Init.Mode = UART_MODE_TX_RX;
 80007b8:	4b09      	ldr	r3, [pc, #36]	; (80007e0 <MX_USART2_UART_Init+0x4c>)
 80007ba:	220c      	movs	r2, #12
 80007bc:	615a      	str	r2, [r3, #20]
  huart2.Init.HwFlowCtl = UART_HWCONTROL_NONE;
 80007be:	4b08      	ldr	r3, [pc, #32]	; (80007e0 <MX_USART2_UART_Init+0x4c>)
 80007c0:	2200      	movs	r2, #0
 80007c2:	619a      	str	r2, [r3, #24]
  huart2.Init.OverSampling = UART_OVERSAMPLING_16;
 80007c4:	4b06      	ldr	r3, [pc, #24]	; (80007e0 <MX_USART2_UART_Init+0x4c>)
 80007c6:	2200      	movs	r2, #0
 80007c8:	61da      	str	r2, [r3, #28]
  if (HAL_UART_Init(&huart2) != HAL_OK)
 80007ca:	4805      	ldr	r0, [pc, #20]	; (80007e0 <MX_USART2_UART_Init+0x4c>)
 80007cc:	f002 f8a8 	bl	8002920 <HAL_UART_Init>
 80007d0:	4603      	mov	r3, r0
 80007d2:	2b00      	cmp	r3, #0
 80007d4:	d001      	beq.n	80007da <MX_USART2_UART_Init+0x46>
  {
    Error_Handler();
 80007d6:	f000 f861 	bl	800089c <Error_Handler>
  }
  /* USER CODE BEGIN USART2_Init 2 */

  /* USER CODE END USART2_Init 2 */

}
 80007da:	bf00      	nop
 80007dc:	bd80      	pop	{r7, pc}
 80007de:	bf00      	nop
 80007e0:	200000cc 	.word	0x200000cc
 80007e4:	40004400 	.word	0x40004400

080007e8 <MX_GPIO_Init>:
  * @brief GPIO Initialization Function
  * @param None
  * @retval None
  */
static void MX_GPIO_Init(void)
{
 80007e8:	b580      	push	{r7, lr}
 80007ea:	b08a      	sub	sp, #40	; 0x28
 80007ec:	af00      	add	r7, sp, #0
  GPIO_InitTypeDef GPIO_InitStruct = {0};
 80007ee:	f107 0314 	add.w	r3, r7, #20
 80007f2:	2200      	movs	r2, #0
 80007f4:	601a      	str	r2, [r3, #0]
 80007f6:	605a      	str	r2, [r3, #4]
 80007f8:	609a      	str	r2, [r3, #8]
 80007fa:	60da      	str	r2, [r3, #12]
 80007fc:	611a      	str	r2, [r3, #16]
/* USER CODE BEGIN MX_GPIO_Init_1 */
/* USER CODE END MX_GPIO_Init_1 */

  /* GPIO Ports Clock Enable */
  __HAL_RCC_GPIOC_CLK_ENABLE();
 80007fe:	2300      	movs	r3, #0
 8000800:	613b      	str	r3, [r7, #16]
 8000802:	4b24      	ldr	r3, [pc, #144]	; (8000894 <MX_GPIO_Init+0xac>)
 8000804:	6b1b      	ldr	r3, [r3, #48]	; 0x30
 8000806:	4a23      	ldr	r2, [pc, #140]	; (8000894 <MX_GPIO_Init+0xac>)
 8000808:	f043 0304 	orr.w	r3, r3, #4
 800080c:	6313      	str	r3, [r2, #48]	; 0x30
 800080e:	4b21      	ldr	r3, [pc, #132]	; (8000894 <MX_GPIO_Init+0xac>)
 8000810:	6b1b      	ldr	r3, [r3, #48]	; 0x30
 8000812:	f003 0304 	and.w	r3, r3, #4
 8000816:	613b      	str	r3, [r7, #16]
 8000818:	693b      	ldr	r3, [r7, #16]
  __HAL_RCC_GPIOH_CLK_ENABLE();
 800081a:	2300      	movs	r3, #0
 800081c:	60fb      	str	r3, [r7, #12]
 800081e:	4b1d      	ldr	r3, [pc, #116]	; (8000894 <MX_GPIO_Init+0xac>)
 8000820:	6b1b      	ldr	r3, [r3, #48]	; 0x30
 8000822:	4a1c      	ldr	r2, [pc, #112]	; (8000894 <MX_GPIO_Init+0xac>)
 8000824:	f043 0380 	orr.w	r3, r3, #128	; 0x80
 8000828:	6313      	str	r3, [r2, #48]	; 0x30
 800082a:	4b1a      	ldr	r3, [pc, #104]	; (8000894 <MX_GPIO_Init+0xac>)
 800082c:	6b1b      	ldr	r3, [r3, #48]	; 0x30
 800082e:	f003 0380 	and.w	r3, r3, #128	; 0x80
 8000832:	60fb      	str	r3, [r7, #12]
 8000834:	68fb      	ldr	r3, [r7, #12]
  __HAL_RCC_GPIOA_CLK_ENABLE();
 8000836:	2300      	movs	r3, #0
 8000838:	60bb      	str	r3, [r7, #8]
 800083a:	4b16      	ldr	r3, [pc, #88]	; (8000894 <MX_GPIO_Init+0xac>)
 800083c:	6b1b      	ldr	r3, [r3, #48]	; 0x30
 800083e:	4a15      	ldr	r2, [pc, #84]	; (8000894 <MX_GPIO_Init+0xac>)
 8000840:	f043 0301 	orr.w	r3, r3, #1
 8000844:	6313      	str	r3, [r2, #48]	; 0x30
 8000846:	4b13      	ldr	r3, [pc, #76]	; (8000894 <MX_GPIO_Init+0xac>)
 8000848:	6b1b      	ldr	r3, [r3, #48]	; 0x30
 800084a:	f003 0301 	and.w	r3, r3, #1
 800084e:	60bb      	str	r3, [r7, #8]
 8000850:	68bb      	ldr	r3, [r7, #8]
  __HAL_RCC_GPIOB_CLK_ENABLE();
 8000852:	2300      	movs	r3, #0
 8000854:	607b      	str	r3, [r7, #4]
 8000856:	4b0f      	ldr	r3, [pc, #60]	; (8000894 <MX_GPIO_Init+0xac>)
 8000858:	6b1b      	ldr	r3, [r3, #48]	; 0x30
 800085a:	4a0e      	ldr	r2, [pc, #56]	; (8000894 <MX_GPIO_Init+0xac>)
 800085c:	f043 0302 	orr.w	r3, r3, #2
 8000860:	6313      	str	r3, [r2, #48]	; 0x30
 8000862:	4b0c      	ldr	r3, [pc, #48]	; (8000894 <MX_GPIO_Init+0xac>)
 8000864:	6b1b      	ldr	r3, [r3, #48]	; 0x30
 8000866:	f003 0302 	and.w	r3, r3, #2
 800086a:	607b      	str	r3, [r7, #4]
 800086c:	687b      	ldr	r3, [r7, #4]

  /*Configure GPIO pin : B1_Pin */
  GPIO_InitStruct.Pin = B1_Pin;
 800086e:	f44f 5300 	mov.w	r3, #8192	; 0x2000
 8000872:	617b      	str	r3, [r7, #20]
  GPIO_InitStruct.Mode = GPIO_MODE_IT_FALLING;
 8000874:	f44f 1304 	mov.w	r3, #2162688	; 0x210000
 8000878:	61bb      	str	r3, [r7, #24]
  GPIO_InitStruct.Pull = GPIO_NOPULL;
 800087a:	2300      	movs	r3, #0
 800087c:	61fb      	str	r3, [r7, #28]
  HAL_GPIO_Init(B1_GPIO_Port, &GPIO_InitStruct);
 800087e:	f107 0314 	add.w	r3, r7, #20
 8000882:	4619      	mov	r1, r3
 8000884:	4804      	ldr	r0, [pc, #16]	; (8000898 <MX_GPIO_Init+0xb0>)
 8000886:	f000 fbef 	bl	8001068 <HAL_GPIO_Init>

/* USER CODE BEGIN MX_GPIO_Init_2 */
/* USER CODE END MX_GPIO_Init_2 */
}
 800088a:	bf00      	nop
 800088c:	3728      	adds	r7, #40	; 0x28
 800088e:	46bd      	mov	sp, r7
 8000890:	bd80      	pop	{r7, pc}
 8000892:	bf00      	nop
 8000894:	40023800 	.word	0x40023800
 8000898:	40020800 	.word	0x40020800

0800089c <Error_Handler>:
/**
  * @brief  This function is executed in case of error occurrence.
  * @retval None
  */
void Error_Handler(void)
{
 800089c:	b480      	push	{r7}
 800089e:	af00      	add	r7, sp, #0
  \details Disables IRQ interrupts by setting special-purpose register PRIMASK.
           Can only be executed in Privileged modes.
 */
__STATIC_FORCEINLINE void __disable_irq(void)
{
  __ASM volatile ("cpsid i" : : : "memory");
 80008a0:	b672      	cpsid	i
}
 80008a2:	bf00      	nop
  /* USER CODE BEGIN Error_Handler_Debug */
  /* User can add his own implementation to report the HAL error return state */
  __disable_irq();
  while (1)
 80008a4:	e7fe      	b.n	80008a4 <Error_Handler+0x8>
	...

080008a8 <__io_getchar>:
//include "C:\Users\user\STM32Cube\Repository\STM32Cube_FW_F4_V1.28.1\Drivers\STM32F4xx_HAL_Driver\Inc\stm32f4xx_hal_i2c.h"

extern UART_HandleTypeDef huart2;	// 외부

int __io_getchar(void)
{
 80008a8:	b580      	push	{r7, lr}
 80008aa:	b082      	sub	sp, #8
 80008ac:	af00      	add	r7, sp, #0
   char ch;
   while(HAL_UART_Receive(&huart2, &ch, 1, 10) != HAL_OK);
 80008ae:	bf00      	nop
 80008b0:	1df9      	adds	r1, r7, #7
 80008b2:	230a      	movs	r3, #10
 80008b4:	2201      	movs	r2, #1
 80008b6:	480d      	ldr	r0, [pc, #52]	; (80008ec <__io_getchar+0x44>)
 80008b8:	f002 f90d 	bl	8002ad6 <HAL_UART_Receive>
 80008bc:	4603      	mov	r3, r0
 80008be:	2b00      	cmp	r3, #0
 80008c0:	d1f6      	bne.n	80008b0 <__io_getchar+0x8>
   HAL_UART_Transmit(&huart2, &ch, 1, 10);
 80008c2:	1df9      	adds	r1, r7, #7
 80008c4:	230a      	movs	r3, #10
 80008c6:	2201      	movs	r2, #1
 80008c8:	4808      	ldr	r0, [pc, #32]	; (80008ec <__io_getchar+0x44>)
 80008ca:	f002 f879 	bl	80029c0 <HAL_UART_Transmit>
   if(ch == '\r') HAL_UART_Transmit(&huart2, "\n", 1, 10);
 80008ce:	79fb      	ldrb	r3, [r7, #7]
 80008d0:	2b0d      	cmp	r3, #13
 80008d2:	d105      	bne.n	80008e0 <__io_getchar+0x38>
 80008d4:	230a      	movs	r3, #10
 80008d6:	2201      	movs	r2, #1
 80008d8:	4905      	ldr	r1, [pc, #20]	; (80008f0 <__io_getchar+0x48>)
 80008da:	4804      	ldr	r0, [pc, #16]	; (80008ec <__io_getchar+0x44>)
 80008dc:	f002 f870 	bl	80029c0 <HAL_UART_Transmit>
   return ch;
 80008e0:	79fb      	ldrb	r3, [r7, #7]
}
 80008e2:	4618      	mov	r0, r3
 80008e4:	3708      	adds	r7, #8
 80008e6:	46bd      	mov	sp, r7
 80008e8:	bd80      	pop	{r7, pc}
 80008ea:	bf00      	nop
 80008ec:	200000cc 	.word	0x200000cc
 80008f0:	080046dc 	.word	0x080046dc

080008f4 <__io_putchar>:

int __io_putchar(int ch)
{
 80008f4:	b580      	push	{r7, lr}
 80008f6:	b082      	sub	sp, #8
 80008f8:	af00      	add	r7, sp, #0
 80008fa:	6078      	str	r0, [r7, #4]
   HAL_UART_Transmit(&huart2, &ch, 1, 10); // size(byte), timeout(ms)
 80008fc:	1d39      	adds	r1, r7, #4
 80008fe:	230a      	movs	r3, #10
 8000900:	2201      	movs	r2, #1
 8000902:	4804      	ldr	r0, [pc, #16]	; (8000914 <__io_putchar+0x20>)
 8000904:	f002 f85c 	bl	80029c0 <HAL_UART_Transmit>
   return ch;
 8000908:	687b      	ldr	r3, [r7, #4]
}
 800090a:	4618      	mov	r0, r3
 800090c:	3708      	adds	r7, #8
 800090e:	46bd      	mov	sp, r7
 8000910:	bd80      	pop	{r7, pc}
 8000912:	bf00      	nop
 8000914:	200000cc 	.word	0x200000cc

08000918 <StandBy>:

void StandBy()
{
 8000918:	b580      	push	{r7, lr}
 800091a:	af00      	add	r7, sp, #0
   while(HAL_GPIO_ReadPin(B1_GPIO_Port, B1_Pin)) {}
 800091c:	bf00      	nop
 800091e:	f44f 5100 	mov.w	r1, #8192	; 0x2000
 8000922:	4804      	ldr	r0, [pc, #16]	; (8000934 <StandBy+0x1c>)
 8000924:	f000 fd24 	bl	8001370 <HAL_GPIO_ReadPin>
 8000928:	4603      	mov	r3, r0
 800092a:	2b00      	cmp	r3, #0
 800092c:	d1f7      	bne.n	800091e <StandBy+0x6>
}
 800092e:	bf00      	nop
 8000930:	bf00      	nop
 8000932:	bd80      	pop	{r7, pc}
 8000934:	40020800 	.word	0x40020800

08000938 <cls>:

void cls()
{
 8000938:	b580      	push	{r7, lr}
 800093a:	af00      	add	r7, sp, #0
	printf("\033[2J");
 800093c:	4802      	ldr	r0, [pc, #8]	; (8000948 <cls+0x10>)
 800093e:	f002 fd53 	bl	80033e8 <iprintf>
}
 8000942:	bf00      	nop
 8000944:	bd80      	pop	{r7, pc}
 8000946:	bf00      	nop
 8000948:	080046e0 	.word	0x080046e0

0800094c <ProgramStart>:

void ProgramStart(char* str)
{
 800094c:	b580      	push	{r7, lr}
 800094e:	b082      	sub	sp, #8
 8000950:	af00      	add	r7, sp, #0
 8000952:	6078      	str	r0, [r7, #4]
   //printf("\033[2J\033[0;0H");
   cls();
 8000954:	f7ff fff0 	bl	8000938 <cls>
   Cursor(0,0);
 8000958:	2100      	movs	r1, #0
 800095a:	2000      	movs	r0, #0
 800095c:	f000 f81c 	bl	8000998 <Cursor>
   printf("Program Name - %s\r\n", str);
 8000960:	6879      	ldr	r1, [r7, #4]
 8000962:	480a      	ldr	r0, [pc, #40]	; (800098c <ProgramStart+0x40>)
 8000964:	f002 fd40 	bl	80033e8 <iprintf>
   printf("Press Blue-button(B1) to Start...\r\n");
 8000968:	4809      	ldr	r0, [pc, #36]	; (8000990 <ProgramStart+0x44>)
 800096a:	f002 fda3 	bl	80034b4 <puts>
   StandBy();
 800096e:	f7ff ffd3 	bl	8000918 <StandBy>
   setvbuf(stdin, NULL, _IONBF, 0);
 8000972:	4b08      	ldr	r3, [pc, #32]	; (8000994 <ProgramStart+0x48>)
 8000974:	681b      	ldr	r3, [r3, #0]
 8000976:	6858      	ldr	r0, [r3, #4]
 8000978:	2300      	movs	r3, #0
 800097a:	2202      	movs	r2, #2
 800097c:	2100      	movs	r1, #0
 800097e:	f002 fda1 	bl	80034c4 <setvbuf>

}
 8000982:	bf00      	nop
 8000984:	3708      	adds	r7, #8
 8000986:	46bd      	mov	sp, r7
 8000988:	bd80      	pop	{r7, pc}
 800098a:	bf00      	nop
 800098c:	080046e8 	.word	0x080046e8
 8000990:	080046fc 	.word	0x080046fc
 8000994:	20000064 	.word	0x20000064

08000998 <Cursor>:

void Cursor(int x, int y)
{
 8000998:	b580      	push	{r7, lr}
 800099a:	b088      	sub	sp, #32
 800099c:	af00      	add	r7, sp, #0
 800099e:	6078      	str	r0, [r7, #4]
 80009a0:	6039      	str	r1, [r7, #0]
	char buf[20];
	sprintf(buf , "\033[%d;%dH", y, x);	//sprintf( buffer, "%d",a,b) console이 아니라 문자열 buf로 출력
 80009a2:	f107 000c 	add.w	r0, r7, #12
 80009a6:	687b      	ldr	r3, [r7, #4]
 80009a8:	683a      	ldr	r2, [r7, #0]
 80009aa:	4906      	ldr	r1, [pc, #24]	; (80009c4 <Cursor+0x2c>)
 80009ac:	f002 fe38 	bl	8003620 <siprintf>
	printf("%s",buf);					//방법 2 puts(buf) puts문자열 출력 함수
 80009b0:	f107 030c 	add.w	r3, r7, #12
 80009b4:	4619      	mov	r1, r3
 80009b6:	4804      	ldr	r0, [pc, #16]	; (80009c8 <Cursor+0x30>)
 80009b8:	f002 fd16 	bl	80033e8 <iprintf>
}
 80009bc:	bf00      	nop
 80009be:	3720      	adds	r7, #32
 80009c0:	46bd      	mov	sp, r7
 80009c2:	bd80      	pop	{r7, pc}
 80009c4:	08004720 	.word	0x08004720
 80009c8:	0800472c 	.word	0x0800472c

080009cc <HAL_MspInit>:
void HAL_TIM_MspPostInit(TIM_HandleTypeDef *htim);
                    /**
  * Initializes the Global MSP.
  */
void HAL_MspInit(void)
{
 80009cc:	b580      	push	{r7, lr}
 80009ce:	b082      	sub	sp, #8
 80009d0:	af00      	add	r7, sp, #0
  /* USER CODE BEGIN MspInit 0 */

  /* USER CODE END MspInit 0 */

  __HAL_RCC_SYSCFG_CLK_ENABLE();
 80009d2:	2300      	movs	r3, #0
 80009d4:	607b      	str	r3, [r7, #4]
 80009d6:	4b10      	ldr	r3, [pc, #64]	; (8000a18 <HAL_MspInit+0x4c>)
 80009d8:	6c5b      	ldr	r3, [r3, #68]	; 0x44
 80009da:	4a0f      	ldr	r2, [pc, #60]	; (8000a18 <HAL_MspInit+0x4c>)
 80009dc:	f443 4380 	orr.w	r3, r3, #16384	; 0x4000
 80009e0:	6453      	str	r3, [r2, #68]	; 0x44
 80009e2:	4b0d      	ldr	r3, [pc, #52]	; (8000a18 <HAL_MspInit+0x4c>)
 80009e4:	6c5b      	ldr	r3, [r3, #68]	; 0x44
 80009e6:	f403 4380 	and.w	r3, r3, #16384	; 0x4000
 80009ea:	607b      	str	r3, [r7, #4]
 80009ec:	687b      	ldr	r3, [r7, #4]
  __HAL_RCC_PWR_CLK_ENABLE();
 80009ee:	2300      	movs	r3, #0
 80009f0:	603b      	str	r3, [r7, #0]
 80009f2:	4b09      	ldr	r3, [pc, #36]	; (8000a18 <HAL_MspInit+0x4c>)
 80009f4:	6c1b      	ldr	r3, [r3, #64]	; 0x40
 80009f6:	4a08      	ldr	r2, [pc, #32]	; (8000a18 <HAL_MspInit+0x4c>)
 80009f8:	f043 5380 	orr.w	r3, r3, #268435456	; 0x10000000
 80009fc:	6413      	str	r3, [r2, #64]	; 0x40
 80009fe:	4b06      	ldr	r3, [pc, #24]	; (8000a18 <HAL_MspInit+0x4c>)
 8000a00:	6c1b      	ldr	r3, [r3, #64]	; 0x40
 8000a02:	f003 5380 	and.w	r3, r3, #268435456	; 0x10000000
 8000a06:	603b      	str	r3, [r7, #0]
 8000a08:	683b      	ldr	r3, [r7, #0]

  HAL_NVIC_SetPriorityGrouping(NVIC_PRIORITYGROUP_0);
 8000a0a:	2007      	movs	r0, #7
 8000a0c:	f000 faf8 	bl	8001000 <HAL_NVIC_SetPriorityGrouping>
  /* System interrupt init*/

  /* USER CODE BEGIN MspInit 1 */

  /* USER CODE END MspInit 1 */
}
 8000a10:	bf00      	nop
 8000a12:	3708      	adds	r7, #8
 8000a14:	46bd      	mov	sp, r7
 8000a16:	bd80      	pop	{r7, pc}
 8000a18:	40023800 	.word	0x40023800

08000a1c <HAL_TIM_Base_MspInit>:
* This function configures the hardware resources used in this example
* @param htim_base: TIM_Base handle pointer
* @retval None
*/
void HAL_TIM_Base_MspInit(TIM_HandleTypeDef* htim_base)
{
 8000a1c:	b480      	push	{r7}
 8000a1e:	b085      	sub	sp, #20
 8000a20:	af00      	add	r7, sp, #0
 8000a22:	6078      	str	r0, [r7, #4]
  if(htim_base->Instance==TIM2)
 8000a24:	687b      	ldr	r3, [r7, #4]
 8000a26:	681b      	ldr	r3, [r3, #0]
 8000a28:	f1b3 4f80 	cmp.w	r3, #1073741824	; 0x40000000
 8000a2c:	d10d      	bne.n	8000a4a <HAL_TIM_Base_MspInit+0x2e>
  {
  /* USER CODE BEGIN TIM2_MspInit 0 */

  /* USER CODE END TIM2_MspInit 0 */
    /* Peripheral clock enable */
    __HAL_RCC_TIM2_CLK_ENABLE();
 8000a2e:	2300      	movs	r3, #0
 8000a30:	60fb      	str	r3, [r7, #12]
 8000a32:	4b09      	ldr	r3, [pc, #36]	; (8000a58 <HAL_TIM_Base_MspInit+0x3c>)
 8000a34:	6c1b      	ldr	r3, [r3, #64]	; 0x40
 8000a36:	4a08      	ldr	r2, [pc, #32]	; (8000a58 <HAL_TIM_Base_MspInit+0x3c>)
 8000a38:	f043 0301 	orr.w	r3, r3, #1
 8000a3c:	6413      	str	r3, [r2, #64]	; 0x40
 8000a3e:	4b06      	ldr	r3, [pc, #24]	; (8000a58 <HAL_TIM_Base_MspInit+0x3c>)
 8000a40:	6c1b      	ldr	r3, [r3, #64]	; 0x40
 8000a42:	f003 0301 	and.w	r3, r3, #1
 8000a46:	60fb      	str	r3, [r7, #12]
 8000a48:	68fb      	ldr	r3, [r7, #12]
  /* USER CODE BEGIN TIM2_MspInit 1 */

  /* USER CODE END TIM2_MspInit 1 */
  }

}
 8000a4a:	bf00      	nop
 8000a4c:	3714      	adds	r7, #20
 8000a4e:	46bd      	mov	sp, r7
 8000a50:	f85d 7b04 	ldr.w	r7, [sp], #4
 8000a54:	4770      	bx	lr
 8000a56:	bf00      	nop
 8000a58:	40023800 	.word	0x40023800

08000a5c <HAL_TIM_MspPostInit>:

void HAL_TIM_MspPostInit(TIM_HandleTypeDef* htim)
{
 8000a5c:	b580      	push	{r7, lr}
 8000a5e:	b088      	sub	sp, #32
 8000a60:	af00      	add	r7, sp, #0
 8000a62:	6078      	str	r0, [r7, #4]
  GPIO_InitTypeDef GPIO_InitStruct = {0};
 8000a64:	f107 030c 	add.w	r3, r7, #12
 8000a68:	2200      	movs	r2, #0
 8000a6a:	601a      	str	r2, [r3, #0]
 8000a6c:	605a      	str	r2, [r3, #4]
 8000a6e:	609a      	str	r2, [r3, #8]
 8000a70:	60da      	str	r2, [r3, #12]
 8000a72:	611a      	str	r2, [r3, #16]
  if(htim->Instance==TIM2)
 8000a74:	687b      	ldr	r3, [r7, #4]
 8000a76:	681b      	ldr	r3, [r3, #0]
 8000a78:	f1b3 4f80 	cmp.w	r3, #1073741824	; 0x40000000
 8000a7c:	d11d      	bne.n	8000aba <HAL_TIM_MspPostInit+0x5e>
  {
  /* USER CODE BEGIN TIM2_MspPostInit 0 */

  /* USER CODE END TIM2_MspPostInit 0 */

    __HAL_RCC_GPIOA_CLK_ENABLE();
 8000a7e:	2300      	movs	r3, #0
 8000a80:	60bb      	str	r3, [r7, #8]
 8000a82:	4b10      	ldr	r3, [pc, #64]	; (8000ac4 <HAL_TIM_MspPostInit+0x68>)
 8000a84:	6b1b      	ldr	r3, [r3, #48]	; 0x30
 8000a86:	4a0f      	ldr	r2, [pc, #60]	; (8000ac4 <HAL_TIM_MspPostInit+0x68>)
 8000a88:	f043 0301 	orr.w	r3, r3, #1
 8000a8c:	6313      	str	r3, [r2, #48]	; 0x30
 8000a8e:	4b0d      	ldr	r3, [pc, #52]	; (8000ac4 <HAL_TIM_MspPostInit+0x68>)
 8000a90:	6b1b      	ldr	r3, [r3, #48]	; 0x30
 8000a92:	f003 0301 	and.w	r3, r3, #1
 8000a96:	60bb      	str	r3, [r7, #8]
 8000a98:	68bb      	ldr	r3, [r7, #8]
    /**TIM2 GPIO Configuration
    PA5     ------> TIM2_CH1
    */
    GPIO_InitStruct.Pin = GPIO_PIN_5;
 8000a9a:	2320      	movs	r3, #32
 8000a9c:	60fb      	str	r3, [r7, #12]
    GPIO_InitStruct.Mode = GPIO_MODE_AF_PP;
 8000a9e:	2302      	movs	r3, #2
 8000aa0:	613b      	str	r3, [r7, #16]
    GPIO_InitStruct.Pull = GPIO_NOPULL;
 8000aa2:	2300      	movs	r3, #0
 8000aa4:	617b      	str	r3, [r7, #20]
    GPIO_InitStruct.Speed = GPIO_SPEED_FREQ_LOW;
 8000aa6:	2300      	movs	r3, #0
 8000aa8:	61bb      	str	r3, [r7, #24]
    GPIO_InitStruct.Alternate = GPIO_AF1_TIM2;
 8000aaa:	2301      	movs	r3, #1
 8000aac:	61fb      	str	r3, [r7, #28]
    HAL_GPIO_Init(GPIOA, &GPIO_InitStruct);
 8000aae:	f107 030c 	add.w	r3, r7, #12
 8000ab2:	4619      	mov	r1, r3
 8000ab4:	4804      	ldr	r0, [pc, #16]	; (8000ac8 <HAL_TIM_MspPostInit+0x6c>)
 8000ab6:	f000 fad7 	bl	8001068 <HAL_GPIO_Init>
  /* USER CODE BEGIN TIM2_MspPostInit 1 */

  /* USER CODE END TIM2_MspPostInit 1 */
  }

}
 8000aba:	bf00      	nop
 8000abc:	3720      	adds	r7, #32
 8000abe:	46bd      	mov	sp, r7
 8000ac0:	bd80      	pop	{r7, pc}
 8000ac2:	bf00      	nop
 8000ac4:	40023800 	.word	0x40023800
 8000ac8:	40020000 	.word	0x40020000

08000acc <HAL_UART_MspInit>:
* This function configures the hardware resources used in this example
* @param huart: UART handle pointer
* @retval None
*/
void HAL_UART_MspInit(UART_HandleTypeDef* huart)
{
 8000acc:	b580      	push	{r7, lr}
 8000ace:	b08a      	sub	sp, #40	; 0x28
 8000ad0:	af00      	add	r7, sp, #0
 8000ad2:	6078      	str	r0, [r7, #4]
  GPIO_InitTypeDef GPIO_InitStruct = {0};
 8000ad4:	f107 0314 	add.w	r3, r7, #20
 8000ad8:	2200      	movs	r2, #0
 8000ada:	601a      	str	r2, [r3, #0]
 8000adc:	605a      	str	r2, [r3, #4]
 8000ade:	609a      	str	r2, [r3, #8]
 8000ae0:	60da      	str	r2, [r3, #12]
 8000ae2:	611a      	str	r2, [r3, #16]
  if(huart->Instance==USART2)
 8000ae4:	687b      	ldr	r3, [r7, #4]
 8000ae6:	681b      	ldr	r3, [r3, #0]
 8000ae8:	4a19      	ldr	r2, [pc, #100]	; (8000b50 <HAL_UART_MspInit+0x84>)
 8000aea:	4293      	cmp	r3, r2
 8000aec:	d12b      	bne.n	8000b46 <HAL_UART_MspInit+0x7a>
  {
  /* USER CODE BEGIN USART2_MspInit 0 */

  /* USER CODE END USART2_MspInit 0 */
    /* Peripheral clock enable */
    __HAL_RCC_USART2_CLK_ENABLE();
 8000aee:	2300      	movs	r3, #0
 8000af0:	613b      	str	r3, [r7, #16]
 8000af2:	4b18      	ldr	r3, [pc, #96]	; (8000b54 <HAL_UART_MspInit+0x88>)
 8000af4:	6c1b      	ldr	r3, [r3, #64]	; 0x40
 8000af6:	4a17      	ldr	r2, [pc, #92]	; (8000b54 <HAL_UART_MspInit+0x88>)
 8000af8:	f443 3300 	orr.w	r3, r3, #131072	; 0x20000
 8000afc:	6413      	str	r3, [r2, #64]	; 0x40
 8000afe:	4b15      	ldr	r3, [pc, #84]	; (8000b54 <HAL_UART_MspInit+0x88>)
 8000b00:	6c1b      	ldr	r3, [r3, #64]	; 0x40
 8000b02:	f403 3300 	and.w	r3, r3, #131072	; 0x20000
 8000b06:	613b      	str	r3, [r7, #16]
 8000b08:	693b      	ldr	r3, [r7, #16]

    __HAL_RCC_GPIOA_CLK_ENABLE();
 8000b0a:	2300      	movs	r3, #0
 8000b0c:	60fb      	str	r3, [r7, #12]
 8000b0e:	4b11      	ldr	r3, [pc, #68]	; (8000b54 <HAL_UART_MspInit+0x88>)
 8000b10:	6b1b      	ldr	r3, [r3, #48]	; 0x30
 8000b12:	4a10      	ldr	r2, [pc, #64]	; (8000b54 <HAL_UART_MspInit+0x88>)
 8000b14:	f043 0301 	orr.w	r3, r3, #1
 8000b18:	6313      	str	r3, [r2, #48]	; 0x30
 8000b1a:	4b0e      	ldr	r3, [pc, #56]	; (8000b54 <HAL_UART_MspInit+0x88>)
 8000b1c:	6b1b      	ldr	r3, [r3, #48]	; 0x30
 8000b1e:	f003 0301 	and.w	r3, r3, #1
 8000b22:	60fb      	str	r3, [r7, #12]
 8000b24:	68fb      	ldr	r3, [r7, #12]
    /**USART2 GPIO Configuration
    PA2     ------> USART2_TX
    PA3     ------> USART2_RX
    */
    GPIO_InitStruct.Pin = USART_TX_Pin|USART_RX_Pin;
 8000b26:	230c      	movs	r3, #12
 8000b28:	617b      	str	r3, [r7, #20]
    GPIO_InitStruct.Mode = GPIO_MODE_AF_PP;
 8000b2a:	2302      	movs	r3, #2
 8000b2c:	61bb      	str	r3, [r7, #24]
    GPIO_InitStruct.Pull = GPIO_NOPULL;
 8000b2e:	2300      	movs	r3, #0
 8000b30:	61fb      	str	r3, [r7, #28]
    GPIO_InitStruct.Speed = GPIO_SPEED_FREQ_VERY_HIGH;
 8000b32:	2303      	movs	r3, #3
 8000b34:	623b      	str	r3, [r7, #32]
    GPIO_InitStruct.Alternate = GPIO_AF7_USART2;
 8000b36:	2307      	movs	r3, #7
 8000b38:	627b      	str	r3, [r7, #36]	; 0x24
    HAL_GPIO_Init(GPIOA, &GPIO_InitStruct);
 8000b3a:	f107 0314 	add.w	r3, r7, #20
 8000b3e:	4619      	mov	r1, r3
 8000b40:	4805      	ldr	r0, [pc, #20]	; (8000b58 <HAL_UART_MspInit+0x8c>)
 8000b42:	f000 fa91 	bl	8001068 <HAL_GPIO_Init>
  /* USER CODE BEGIN USART2_MspInit 1 */

  /* USER CODE END USART2_MspInit 1 */
  }

}
 8000b46:	bf00      	nop
 8000b48:	3728      	adds	r7, #40	; 0x28
 8000b4a:	46bd      	mov	sp, r7
 8000b4c:	bd80      	pop	{r7, pc}
 8000b4e:	bf00      	nop
 8000b50:	40004400 	.word	0x40004400
 8000b54:	40023800 	.word	0x40023800
 8000b58:	40020000 	.word	0x40020000

08000b5c <NMI_Handler>:
/******************************************************************************/
/**
  * @brief This function handles Non maskable interrupt.
  */
void NMI_Handler(void)
{
 8000b5c:	b480      	push	{r7}
 8000b5e:	af00      	add	r7, sp, #0
  /* USER CODE BEGIN NonMaskableInt_IRQn 0 */

  /* USER CODE END NonMaskableInt_IRQn 0 */
  /* USER CODE BEGIN NonMaskableInt_IRQn 1 */
   while (1)
 8000b60:	e7fe      	b.n	8000b60 <NMI_Handler+0x4>

08000b62 <HardFault_Handler>:

/**
  * @brief This function handles Hard fault interrupt.
  */
void HardFault_Handler(void)
{
 8000b62:	b480      	push	{r7}
 8000b64:	af00      	add	r7, sp, #0
  /* USER CODE BEGIN HardFault_IRQn 0 */

  /* USER CODE END HardFault_IRQn 0 */
  while (1)
 8000b66:	e7fe      	b.n	8000b66 <HardFault_Handler+0x4>

08000b68 <MemManage_Handler>:

/**
  * @brief This function handles Memory management fault.
  */
void MemManage_Handler(void)
{
 8000b68:	b480      	push	{r7}
 8000b6a:	af00      	add	r7, sp, #0
  /* USER CODE BEGIN MemoryManagement_IRQn 0 */

  /* USER CODE END MemoryManagement_IRQn 0 */
  while (1)
 8000b6c:	e7fe      	b.n	8000b6c <MemManage_Handler+0x4>

08000b6e <BusFault_Handler>:

/**
  * @brief This function handles Pre-fetch fault, memory access fault.
  */
void BusFault_Handler(void)
{
 8000b6e:	b480      	push	{r7}
 8000b70:	af00      	add	r7, sp, #0
  /* USER CODE BEGIN BusFault_IRQn 0 */

  /* USER CODE END BusFault_IRQn 0 */
  while (1)
 8000b72:	e7fe      	b.n	8000b72 <BusFault_Handler+0x4>

08000b74 <UsageFault_Handler>:

/**
  * @brief This function handles Undefined instruction or illegal state.
  */
void UsageFault_Handler(void)
{
 8000b74:	b480      	push	{r7}
 8000b76:	af00      	add	r7, sp, #0
  /* USER CODE BEGIN UsageFault_IRQn 0 */

  /* USER CODE END UsageFault_IRQn 0 */
  while (1)
 8000b78:	e7fe      	b.n	8000b78 <UsageFault_Handler+0x4>

08000b7a <SVC_Handler>:

/**
  * @brief This function handles System service call via SWI instruction.
  */
void SVC_Handler(void)
{
 8000b7a:	b480      	push	{r7}
 8000b7c:	af00      	add	r7, sp, #0

  /* USER CODE END SVCall_IRQn 0 */
  /* USER CODE BEGIN SVCall_IRQn 1 */

  /* USER CODE END SVCall_IRQn 1 */
}
 8000b7e:	bf00      	nop
 8000b80:	46bd      	mov	sp, r7
 8000b82:	f85d 7b04 	ldr.w	r7, [sp], #4
 8000b86:	4770      	bx	lr

08000b88 <DebugMon_Handler>:

/**
  * @brief This function handles Debug monitor.
  */
void DebugMon_Handler(void)
{
 8000b88:	b480      	push	{r7}
 8000b8a:	af00      	add	r7, sp, #0

  /* USER CODE END DebugMonitor_IRQn 0 */
  /* USER CODE BEGIN DebugMonitor_IRQn 1 */

  /* USER CODE END DebugMonitor_IRQn 1 */
}
 8000b8c:	bf00      	nop
 8000b8e:	46bd      	mov	sp, r7
 8000b90:	f85d 7b04 	ldr.w	r7, [sp], #4
 8000b94:	4770      	bx	lr

08000b96 <PendSV_Handler>:

/**
  * @brief This function handles Pendable request for system service.
  */
void PendSV_Handler(void)
{
 8000b96:	b480      	push	{r7}
 8000b98:	af00      	add	r7, sp, #0

  /* USER CODE END PendSV_IRQn 0 */
  /* USER CODE BEGIN PendSV_IRQn 1 */

  /* USER CODE END PendSV_IRQn 1 */
}
 8000b9a:	bf00      	nop
 8000b9c:	46bd      	mov	sp, r7
 8000b9e:	f85d 7b04 	ldr.w	r7, [sp], #4
 8000ba2:	4770      	bx	lr

08000ba4 <SysTick_Handler>:

/**
  * @brief This function handles System tick timer.
  */
void SysTick_Handler(void)
{
 8000ba4:	b580      	push	{r7, lr}
 8000ba6:	af00      	add	r7, sp, #0
  /* USER CODE BEGIN SysTick_IRQn 0 */

  /* USER CODE END SysTick_IRQn 0 */
  HAL_IncTick();
 8000ba8:	f000 f934 	bl	8000e14 <HAL_IncTick>
  /* USER CODE BEGIN SysTick_IRQn 1 */

  /* USER CODE END SysTick_IRQn 1 */
}
 8000bac:	bf00      	nop
 8000bae:	bd80      	pop	{r7, pc}

08000bb0 <_read>:
  _kill(status, -1);
  while (1) {}    /* Make sure we hang here */
}

__attribute__((weak)) int _read(int file, char *ptr, int len)
{
 8000bb0:	b580      	push	{r7, lr}
 8000bb2:	b086      	sub	sp, #24
 8000bb4:	af00      	add	r7, sp, #0
 8000bb6:	60f8      	str	r0, [r7, #12]
 8000bb8:	60b9      	str	r1, [r7, #8]
 8000bba:	607a      	str	r2, [r7, #4]
  (void)file;
  int DataIdx;

  for (DataIdx = 0; DataIdx < len; DataIdx++)
 8000bbc:	2300      	movs	r3, #0
 8000bbe:	617b      	str	r3, [r7, #20]
 8000bc0:	e00a      	b.n	8000bd8 <_read+0x28>
  {
    *ptr++ = __io_getchar();
 8000bc2:	f7ff fe71 	bl	80008a8 <__io_getchar>
 8000bc6:	4601      	mov	r1, r0
 8000bc8:	68bb      	ldr	r3, [r7, #8]
 8000bca:	1c5a      	adds	r2, r3, #1
 8000bcc:	60ba      	str	r2, [r7, #8]
 8000bce:	b2ca      	uxtb	r2, r1
 8000bd0:	701a      	strb	r2, [r3, #0]
  for (DataIdx = 0; DataIdx < len; DataIdx++)
 8000bd2:	697b      	ldr	r3, [r7, #20]
 8000bd4:	3301      	adds	r3, #1
 8000bd6:	617b      	str	r3, [r7, #20]
 8000bd8:	697a      	ldr	r2, [r7, #20]
 8000bda:	687b      	ldr	r3, [r7, #4]
 8000bdc:	429a      	cmp	r2, r3
 8000bde:	dbf0      	blt.n	8000bc2 <_read+0x12>
  }

  return len;
 8000be0:	687b      	ldr	r3, [r7, #4]
}
 8000be2:	4618      	mov	r0, r3
 8000be4:	3718      	adds	r7, #24
 8000be6:	46bd      	mov	sp, r7
 8000be8:	bd80      	pop	{r7, pc}

08000bea <_write>:

__attribute__((weak)) int _write(int file, char *ptr, int len)
{
 8000bea:	b580      	push	{r7, lr}
 8000bec:	b086      	sub	sp, #24
 8000bee:	af00      	add	r7, sp, #0
 8000bf0:	60f8      	str	r0, [r7, #12]
 8000bf2:	60b9      	str	r1, [r7, #8]
 8000bf4:	607a      	str	r2, [r7, #4]
  (void)file;
  int DataIdx;

  for (DataIdx = 0; DataIdx < len; DataIdx++)
 8000bf6:	2300      	movs	r3, #0
 8000bf8:	617b      	str	r3, [r7, #20]
 8000bfa:	e009      	b.n	8000c10 <_write+0x26>
  {
    __io_putchar(*ptr++);
 8000bfc:	68bb      	ldr	r3, [r7, #8]
 8000bfe:	1c5a      	adds	r2, r3, #1
 8000c00:	60ba      	str	r2, [r7, #8]
 8000c02:	781b      	ldrb	r3, [r3, #0]
 8000c04:	4618      	mov	r0, r3
 8000c06:	f7ff fe75 	bl	80008f4 <__io_putchar>
  for (DataIdx = 0; DataIdx < len; DataIdx++)
 8000c0a:	697b      	ldr	r3, [r7, #20]
 8000c0c:	3301      	adds	r3, #1
 8000c0e:	617b      	str	r3, [r7, #20]
 8000c10:	697a      	ldr	r2, [r7, #20]
 8000c12:	687b      	ldr	r3, [r7, #4]
 8000c14:	429a      	cmp	r2, r3
 8000c16:	dbf1      	blt.n	8000bfc <_write+0x12>
  }
  return len;
 8000c18:	687b      	ldr	r3, [r7, #4]
}
 8000c1a:	4618      	mov	r0, r3
 8000c1c:	3718      	adds	r7, #24
 8000c1e:	46bd      	mov	sp, r7
 8000c20:	bd80      	pop	{r7, pc}

08000c22 <_close>:

int _close(int file)
{
 8000c22:	b480      	push	{r7}
 8000c24:	b083      	sub	sp, #12
 8000c26:	af00      	add	r7, sp, #0
 8000c28:	6078      	str	r0, [r7, #4]
  (void)file;
  return -1;
 8000c2a:	f04f 33ff 	mov.w	r3, #4294967295
}
 8000c2e:	4618      	mov	r0, r3
 8000c30:	370c      	adds	r7, #12
 8000c32:	46bd      	mov	sp, r7
 8000c34:	f85d 7b04 	ldr.w	r7, [sp], #4
 8000c38:	4770      	bx	lr

08000c3a <_fstat>:


int _fstat(int file, struct stat *st)
{
 8000c3a:	b480      	push	{r7}
 8000c3c:	b083      	sub	sp, #12
 8000c3e:	af00      	add	r7, sp, #0
 8000c40:	6078      	str	r0, [r7, #4]
 8000c42:	6039      	str	r1, [r7, #0]
  (void)file;
  st->st_mode = S_IFCHR;
 8000c44:	683b      	ldr	r3, [r7, #0]
 8000c46:	f44f 5200 	mov.w	r2, #8192	; 0x2000
 8000c4a:	605a      	str	r2, [r3, #4]
  return 0;
 8000c4c:	2300      	movs	r3, #0
}
 8000c4e:	4618      	mov	r0, r3
 8000c50:	370c      	adds	r7, #12
 8000c52:	46bd      	mov	sp, r7
 8000c54:	f85d 7b04 	ldr.w	r7, [sp], #4
 8000c58:	4770      	bx	lr

08000c5a <_isatty>:

int _isatty(int file)
{
 8000c5a:	b480      	push	{r7}
 8000c5c:	b083      	sub	sp, #12
 8000c5e:	af00      	add	r7, sp, #0
 8000c60:	6078      	str	r0, [r7, #4]
  (void)file;
  return 1;
 8000c62:	2301      	movs	r3, #1
}
 8000c64:	4618      	mov	r0, r3
 8000c66:	370c      	adds	r7, #12
 8000c68:	46bd      	mov	sp, r7
 8000c6a:	f85d 7b04 	ldr.w	r7, [sp], #4
 8000c6e:	4770      	bx	lr

08000c70 <_lseek>:

int _lseek(int file, int ptr, int dir)
{
 8000c70:	b480      	push	{r7}
 8000c72:	b085      	sub	sp, #20
 8000c74:	af00      	add	r7, sp, #0
 8000c76:	60f8      	str	r0, [r7, #12]
 8000c78:	60b9      	str	r1, [r7, #8]
 8000c7a:	607a      	str	r2, [r7, #4]
  (void)file;
  (void)ptr;
  (void)dir;
  return 0;
 8000c7c:	2300      	movs	r3, #0
}
 8000c7e:	4618      	mov	r0, r3
 8000c80:	3714      	adds	r7, #20
 8000c82:	46bd      	mov	sp, r7
 8000c84:	f85d 7b04 	ldr.w	r7, [sp], #4
 8000c88:	4770      	bx	lr
	...

08000c8c <_sbrk>:
 *
 * @param incr Memory size
 * @return Pointer to allocated memory
 */
void *_sbrk(ptrdiff_t incr)
{
 8000c8c:	b580      	push	{r7, lr}
 8000c8e:	b086      	sub	sp, #24
 8000c90:	af00      	add	r7, sp, #0
 8000c92:	6078      	str	r0, [r7, #4]
  extern uint8_t _end; /* Symbol defined in the linker script */
  extern uint8_t _estack; /* Symbol defined in the linker script */
  extern uint32_t _Min_Stack_Size; /* Symbol defined in the linker script */
  const uint32_t stack_limit = (uint32_t)&_estack - (uint32_t)&_Min_Stack_Size;
 8000c94:	4a14      	ldr	r2, [pc, #80]	; (8000ce8 <_sbrk+0x5c>)
 8000c96:	4b15      	ldr	r3, [pc, #84]	; (8000cec <_sbrk+0x60>)
 8000c98:	1ad3      	subs	r3, r2, r3
 8000c9a:	617b      	str	r3, [r7, #20]
  const uint8_t *max_heap = (uint8_t *)stack_limit;
 8000c9c:	697b      	ldr	r3, [r7, #20]
 8000c9e:	613b      	str	r3, [r7, #16]
  uint8_t *prev_heap_end;

  /* Initialize heap end at first call */
  if (NULL == __sbrk_heap_end)
 8000ca0:	4b13      	ldr	r3, [pc, #76]	; (8000cf0 <_sbrk+0x64>)
 8000ca2:	681b      	ldr	r3, [r3, #0]
 8000ca4:	2b00      	cmp	r3, #0
 8000ca6:	d102      	bne.n	8000cae <_sbrk+0x22>
  {
    __sbrk_heap_end = &_end;
 8000ca8:	4b11      	ldr	r3, [pc, #68]	; (8000cf0 <_sbrk+0x64>)
 8000caa:	4a12      	ldr	r2, [pc, #72]	; (8000cf4 <_sbrk+0x68>)
 8000cac:	601a      	str	r2, [r3, #0]
  }

  /* Protect heap from growing into the reserved MSP stack */
  if (__sbrk_heap_end + incr > max_heap)
 8000cae:	4b10      	ldr	r3, [pc, #64]	; (8000cf0 <_sbrk+0x64>)
 8000cb0:	681a      	ldr	r2, [r3, #0]
 8000cb2:	687b      	ldr	r3, [r7, #4]
 8000cb4:	4413      	add	r3, r2
 8000cb6:	693a      	ldr	r2, [r7, #16]
 8000cb8:	429a      	cmp	r2, r3
 8000cba:	d207      	bcs.n	8000ccc <_sbrk+0x40>
  {
    errno = ENOMEM;
 8000cbc:	f002 fdf6 	bl	80038ac <__errno>
 8000cc0:	4603      	mov	r3, r0
 8000cc2:	220c      	movs	r2, #12
 8000cc4:	601a      	str	r2, [r3, #0]
    return (void *)-1;
 8000cc6:	f04f 33ff 	mov.w	r3, #4294967295
 8000cca:	e009      	b.n	8000ce0 <_sbrk+0x54>
  }

  prev_heap_end = __sbrk_heap_end;
 8000ccc:	4b08      	ldr	r3, [pc, #32]	; (8000cf0 <_sbrk+0x64>)
 8000cce:	681b      	ldr	r3, [r3, #0]
 8000cd0:	60fb      	str	r3, [r7, #12]
  __sbrk_heap_end += incr;
 8000cd2:	4b07      	ldr	r3, [pc, #28]	; (8000cf0 <_sbrk+0x64>)
 8000cd4:	681a      	ldr	r2, [r3, #0]
 8000cd6:	687b      	ldr	r3, [r7, #4]
 8000cd8:	4413      	add	r3, r2
 8000cda:	4a05      	ldr	r2, [pc, #20]	; (8000cf0 <_sbrk+0x64>)
 8000cdc:	6013      	str	r3, [r2, #0]

  return (void *)prev_heap_end;
 8000cde:	68fb      	ldr	r3, [r7, #12]
}
 8000ce0:	4618      	mov	r0, r3
 8000ce2:	3718      	adds	r7, #24
 8000ce4:	46bd      	mov	sp, r7
 8000ce6:	bd80      	pop	{r7, pc}
 8000ce8:	20020000 	.word	0x20020000
 8000cec:	00000400 	.word	0x00000400
 8000cf0:	20000114 	.word	0x20000114
 8000cf4:	20000268 	.word	0x20000268

08000cf8 <SystemInit>:
  *         configuration.
  * @param  None
  * @retval None
  */
void SystemInit(void)
{
 8000cf8:	b480      	push	{r7}
 8000cfa:	af00      	add	r7, sp, #0
  /* FPU settings ------------------------------------------------------------*/
  #if (__FPU_PRESENT == 1) && (__FPU_USED == 1)
    SCB->CPACR |= ((3UL << 10*2)|(3UL << 11*2));  /* set CP10 and CP11 Full Access */
 8000cfc:	4b06      	ldr	r3, [pc, #24]	; (8000d18 <SystemInit+0x20>)
 8000cfe:	f8d3 3088 	ldr.w	r3, [r3, #136]	; 0x88
 8000d02:	4a05      	ldr	r2, [pc, #20]	; (8000d18 <SystemInit+0x20>)
 8000d04:	f443 0370 	orr.w	r3, r3, #15728640	; 0xf00000
 8000d08:	f8c2 3088 	str.w	r3, [r2, #136]	; 0x88

  /* Configure the Vector Table location -------------------------------------*/
#if defined(USER_VECT_TAB_ADDRESS)
  SCB->VTOR = VECT_TAB_BASE_ADDRESS | VECT_TAB_OFFSET; /* Vector Table Relocation in Internal SRAM */
#endif /* USER_VECT_TAB_ADDRESS */
}
 8000d0c:	bf00      	nop
 8000d0e:	46bd      	mov	sp, r7
 8000d10:	f85d 7b04 	ldr.w	r7, [sp], #4
 8000d14:	4770      	bx	lr
 8000d16:	bf00      	nop
 8000d18:	e000ed00 	.word	0xe000ed00

08000d1c <Reset_Handler>:

    .section  .text.Reset_Handler
  .weak  Reset_Handler
  .type  Reset_Handler, %function
Reset_Handler:  
  ldr   sp, =_estack    		 /* set stack pointer */
 8000d1c:	f8df d034 	ldr.w	sp, [pc, #52]	; 8000d54 <LoopFillZerobss+0xe>

/* Call the clock system initialization function.*/
  bl  SystemInit   
 8000d20:	f7ff ffea 	bl	8000cf8 <SystemInit>

/* Copy the data segment initializers from flash to SRAM */  
  ldr r0, =_sdata
 8000d24:	480c      	ldr	r0, [pc, #48]	; (8000d58 <LoopFillZerobss+0x12>)
  ldr r1, =_edata
 8000d26:	490d      	ldr	r1, [pc, #52]	; (8000d5c <LoopFillZerobss+0x16>)
  ldr r2, =_sidata
 8000d28:	4a0d      	ldr	r2, [pc, #52]	; (8000d60 <LoopFillZerobss+0x1a>)
  movs r3, #0
 8000d2a:	2300      	movs	r3, #0
  b LoopCopyDataInit
 8000d2c:	e002      	b.n	8000d34 <LoopCopyDataInit>

08000d2e <CopyDataInit>:

CopyDataInit:
  ldr r4, [r2, r3]
 8000d2e:	58d4      	ldr	r4, [r2, r3]
  str r4, [r0, r3]
 8000d30:	50c4      	str	r4, [r0, r3]
  adds r3, r3, #4
 8000d32:	3304      	adds	r3, #4

08000d34 <LoopCopyDataInit>:

LoopCopyDataInit:
  adds r4, r0, r3
 8000d34:	18c4      	adds	r4, r0, r3
  cmp r4, r1
 8000d36:	428c      	cmp	r4, r1
  bcc CopyDataInit
 8000d38:	d3f9      	bcc.n	8000d2e <CopyDataInit>
  
/* Zero fill the bss segment. */
  ldr r2, =_sbss
 8000d3a:	4a0a      	ldr	r2, [pc, #40]	; (8000d64 <LoopFillZerobss+0x1e>)
  ldr r4, =_ebss
 8000d3c:	4c0a      	ldr	r4, [pc, #40]	; (8000d68 <LoopFillZerobss+0x22>)
  movs r3, #0
 8000d3e:	2300      	movs	r3, #0
  b LoopFillZerobss
 8000d40:	e001      	b.n	8000d46 <LoopFillZerobss>

08000d42 <FillZerobss>:

FillZerobss:
  str  r3, [r2]
 8000d42:	6013      	str	r3, [r2, #0]
  adds r2, r2, #4
 8000d44:	3204      	adds	r2, #4

08000d46 <LoopFillZerobss>:

LoopFillZerobss:
  cmp r2, r4
 8000d46:	42a2      	cmp	r2, r4
  bcc FillZerobss
 8000d48:	d3fb      	bcc.n	8000d42 <FillZerobss>

/* Call static constructors */
    bl __libc_init_array
 8000d4a:	f002 fdb5 	bl	80038b8 <__libc_init_array>
/* Call the application's entry point.*/
  bl  main
 8000d4e:	f7ff fc15 	bl	800057c <main>
  bx  lr    
 8000d52:	4770      	bx	lr
  ldr   sp, =_estack    		 /* set stack pointer */
 8000d54:	20020000 	.word	0x20020000
  ldr r0, =_sdata
 8000d58:	20000000 	.word	0x20000000
  ldr r1, =_edata
 8000d5c:	20000068 	.word	0x20000068
  ldr r2, =_sidata
 8000d60:	0800478c 	.word	0x0800478c
  ldr r2, =_sbss
 8000d64:	20000068 	.word	0x20000068
  ldr r4, =_ebss
 8000d68:	20000268 	.word	0x20000268

08000d6c <ADC_IRQHandler>:
 * @retval None       
*/
    .section  .text.Default_Handler,"ax",%progbits
Default_Handler:
Infinite_Loop:
  b  Infinite_Loop
 8000d6c:	e7fe      	b.n	8000d6c <ADC_IRQHandler>
	...

08000d70 <HAL_Init>:
  *         need to ensure that the SysTick time base is always set to 1 millisecond
  *         to have correct HAL operation.
  * @retval HAL status
  */
HAL_StatusTypeDef HAL_Init(void)
{
 8000d70:	b580      	push	{r7, lr}
 8000d72:	af00      	add	r7, sp, #0
  /* Configure Flash prefetch, Instruction cache, Data cache */ 
#if (INSTRUCTION_CACHE_ENABLE != 0U)
  __HAL_FLASH_INSTRUCTION_CACHE_ENABLE();
 8000d74:	4b0e      	ldr	r3, [pc, #56]	; (8000db0 <HAL_Init+0x40>)
 8000d76:	681b      	ldr	r3, [r3, #0]
 8000d78:	4a0d      	ldr	r2, [pc, #52]	; (8000db0 <HAL_Init+0x40>)
 8000d7a:	f443 7300 	orr.w	r3, r3, #512	; 0x200
 8000d7e:	6013      	str	r3, [r2, #0]
#endif /* INSTRUCTION_CACHE_ENABLE */

#if (DATA_CACHE_ENABLE != 0U)
  __HAL_FLASH_DATA_CACHE_ENABLE();
 8000d80:	4b0b      	ldr	r3, [pc, #44]	; (8000db0 <HAL_Init+0x40>)
 8000d82:	681b      	ldr	r3, [r3, #0]
 8000d84:	4a0a      	ldr	r2, [pc, #40]	; (8000db0 <HAL_Init+0x40>)
 8000d86:	f443 6380 	orr.w	r3, r3, #1024	; 0x400
 8000d8a:	6013      	str	r3, [r2, #0]
#endif /* DATA_CACHE_ENABLE */

#if (PREFETCH_ENABLE != 0U)
  __HAL_FLASH_PREFETCH_BUFFER_ENABLE();
 8000d8c:	4b08      	ldr	r3, [pc, #32]	; (8000db0 <HAL_Init+0x40>)
 8000d8e:	681b      	ldr	r3, [r3, #0]
 8000d90:	4a07      	ldr	r2, [pc, #28]	; (8000db0 <HAL_Init+0x40>)
 8000d92:	f443 7380 	orr.w	r3, r3, #256	; 0x100
 8000d96:	6013      	str	r3, [r2, #0]
#endif /* PREFETCH_ENABLE */

  /* Set Interrupt Group Priority */
  HAL_NVIC_SetPriorityGrouping(NVIC_PRIORITYGROUP_4);
 8000d98:	2003      	movs	r0, #3
 8000d9a:	f000 f931 	bl	8001000 <HAL_NVIC_SetPriorityGrouping>

  /* Use systick as time base source and configure 1ms tick (default clock after Reset is HSI) */
  HAL_InitTick(TICK_INT_PRIORITY);
 8000d9e:	2000      	movs	r0, #0
 8000da0:	f000 f808 	bl	8000db4 <HAL_InitTick>

  /* Init the low level hardware */
  HAL_MspInit();
 8000da4:	f7ff fe12 	bl	80009cc <HAL_MspInit>

  /* Return function status */
  return HAL_OK;
 8000da8:	2300      	movs	r3, #0
}
 8000daa:	4618      	mov	r0, r3
 8000dac:	bd80      	pop	{r7, pc}
 8000dae:	bf00      	nop
 8000db0:	40023c00 	.word	0x40023c00

08000db4 <HAL_InitTick>:
  *       implementation  in user file.
  * @param TickPriority Tick interrupt priority.
  * @retval HAL status
  */
__weak HAL_StatusTypeDef HAL_InitTick(uint32_t TickPriority)
{
 8000db4:	b580      	push	{r7, lr}
 8000db6:	b082      	sub	sp, #8
 8000db8:	af00      	add	r7, sp, #0
 8000dba:	6078      	str	r0, [r7, #4]
  /* Configure the SysTick to have interrupt in 1ms time basis*/
  if (HAL_SYSTICK_Config(SystemCoreClock / (1000U / uwTickFreq)) > 0U)
 8000dbc:	4b12      	ldr	r3, [pc, #72]	; (8000e08 <HAL_InitTick+0x54>)
 8000dbe:	681a      	ldr	r2, [r3, #0]
 8000dc0:	4b12      	ldr	r3, [pc, #72]	; (8000e0c <HAL_InitTick+0x58>)
 8000dc2:	781b      	ldrb	r3, [r3, #0]
 8000dc4:	4619      	mov	r1, r3
 8000dc6:	f44f 737a 	mov.w	r3, #1000	; 0x3e8
 8000dca:	fbb3 f3f1 	udiv	r3, r3, r1
 8000dce:	fbb2 f3f3 	udiv	r3, r2, r3
 8000dd2:	4618      	mov	r0, r3
 8000dd4:	f000 f93b 	bl	800104e <HAL_SYSTICK_Config>
 8000dd8:	4603      	mov	r3, r0
 8000dda:	2b00      	cmp	r3, #0
 8000ddc:	d001      	beq.n	8000de2 <HAL_InitTick+0x2e>
  {
    return HAL_ERROR;
 8000dde:	2301      	movs	r3, #1
 8000de0:	e00e      	b.n	8000e00 <HAL_InitTick+0x4c>
  }

  /* Configure the SysTick IRQ priority */
  if (TickPriority < (1UL << __NVIC_PRIO_BITS))
 8000de2:	687b      	ldr	r3, [r7, #4]
 8000de4:	2b0f      	cmp	r3, #15
 8000de6:	d80a      	bhi.n	8000dfe <HAL_InitTick+0x4a>
  {
    HAL_NVIC_SetPriority(SysTick_IRQn, TickPriority, 0U);
 8000de8:	2200      	movs	r2, #0
 8000dea:	6879      	ldr	r1, [r7, #4]
 8000dec:	f04f 30ff 	mov.w	r0, #4294967295
 8000df0:	f000 f911 	bl	8001016 <HAL_NVIC_SetPriority>
    uwTickPrio = TickPriority;
 8000df4:	4a06      	ldr	r2, [pc, #24]	; (8000e10 <HAL_InitTick+0x5c>)
 8000df6:	687b      	ldr	r3, [r7, #4]
 8000df8:	6013      	str	r3, [r2, #0]
  {
    return HAL_ERROR;
  }

  /* Return function status */
  return HAL_OK;
 8000dfa:	2300      	movs	r3, #0
 8000dfc:	e000      	b.n	8000e00 <HAL_InitTick+0x4c>
    return HAL_ERROR;
 8000dfe:	2301      	movs	r3, #1
}
 8000e00:	4618      	mov	r0, r3
 8000e02:	3708      	adds	r7, #8
 8000e04:	46bd      	mov	sp, r7
 8000e06:	bd80      	pop	{r7, pc}
 8000e08:	20000000 	.word	0x20000000
 8000e0c:	20000008 	.word	0x20000008
 8000e10:	20000004 	.word	0x20000004

08000e14 <HAL_IncTick>:
 * @note This function is declared as __weak to be overwritten in case of other 
  *      implementations in user file.
  * @retval None
  */
__weak void HAL_IncTick(void)
{
 8000e14:	b480      	push	{r7}
 8000e16:	af00      	add	r7, sp, #0
  uwTick += uwTickFreq;
 8000e18:	4b06      	ldr	r3, [pc, #24]	; (8000e34 <HAL_IncTick+0x20>)
 8000e1a:	781b      	ldrb	r3, [r3, #0]
 8000e1c:	461a      	mov	r2, r3
 8000e1e:	4b06      	ldr	r3, [pc, #24]	; (8000e38 <HAL_IncTick+0x24>)
 8000e20:	681b      	ldr	r3, [r3, #0]
 8000e22:	4413      	add	r3, r2
 8000e24:	4a04      	ldr	r2, [pc, #16]	; (8000e38 <HAL_IncTick+0x24>)
 8000e26:	6013      	str	r3, [r2, #0]
}
 8000e28:	bf00      	nop
 8000e2a:	46bd      	mov	sp, r7
 8000e2c:	f85d 7b04 	ldr.w	r7, [sp], #4
 8000e30:	4770      	bx	lr
 8000e32:	bf00      	nop
 8000e34:	20000008 	.word	0x20000008
 8000e38:	20000118 	.word	0x20000118

08000e3c <HAL_GetTick>:
  * @note This function is declared as __weak to be overwritten in case of other 
  *       implementations in user file.
  * @retval tick value
  */
__weak uint32_t HAL_GetTick(void)
{
 8000e3c:	b480      	push	{r7}
 8000e3e:	af00      	add	r7, sp, #0
  return uwTick;
 8000e40:	4b03      	ldr	r3, [pc, #12]	; (8000e50 <HAL_GetTick+0x14>)
 8000e42:	681b      	ldr	r3, [r3, #0]
}
 8000e44:	4618      	mov	r0, r3
 8000e46:	46bd      	mov	sp, r7
 8000e48:	f85d 7b04 	ldr.w	r7, [sp], #4
 8000e4c:	4770      	bx	lr
 8000e4e:	bf00      	nop
 8000e50:	20000118 	.word	0x20000118

08000e54 <HAL_Delay>:
  *       implementations in user file.
  * @param Delay specifies the delay time length, in milliseconds.
  * @retval None
  */
__weak void HAL_Delay(uint32_t Delay)
{
 8000e54:	b580      	push	{r7, lr}
 8000e56:	b084      	sub	sp, #16
 8000e58:	af00      	add	r7, sp, #0
 8000e5a:	6078      	str	r0, [r7, #4]
  uint32_t tickstart = HAL_GetTick();
 8000e5c:	f7ff ffee 	bl	8000e3c <HAL_GetTick>
 8000e60:	60b8      	str	r0, [r7, #8]
  uint32_t wait = Delay;
 8000e62:	687b      	ldr	r3, [r7, #4]
 8000e64:	60fb      	str	r3, [r7, #12]

  /* Add a freq to guarantee minimum wait */
  if (wait < HAL_MAX_DELAY)
 8000e66:	68fb      	ldr	r3, [r7, #12]
 8000e68:	f1b3 3fff 	cmp.w	r3, #4294967295
 8000e6c:	d005      	beq.n	8000e7a <HAL_Delay+0x26>
  {
    wait += (uint32_t)(uwTickFreq);
 8000e6e:	4b0a      	ldr	r3, [pc, #40]	; (8000e98 <HAL_Delay+0x44>)
 8000e70:	781b      	ldrb	r3, [r3, #0]
 8000e72:	461a      	mov	r2, r3
 8000e74:	68fb      	ldr	r3, [r7, #12]
 8000e76:	4413      	add	r3, r2
 8000e78:	60fb      	str	r3, [r7, #12]
  }

  while((HAL_GetTick() - tickstart) < wait)
 8000e7a:	bf00      	nop
 8000e7c:	f7ff ffde 	bl	8000e3c <HAL_GetTick>
 8000e80:	4602      	mov	r2, r0
 8000e82:	68bb      	ldr	r3, [r7, #8]
 8000e84:	1ad3      	subs	r3, r2, r3
 8000e86:	68fa      	ldr	r2, [r7, #12]
 8000e88:	429a      	cmp	r2, r3
 8000e8a:	d8f7      	bhi.n	8000e7c <HAL_Delay+0x28>
  {
  }
}
 8000e8c:	bf00      	nop
 8000e8e:	bf00      	nop
 8000e90:	3710      	adds	r7, #16
 8000e92:	46bd      	mov	sp, r7
 8000e94:	bd80      	pop	{r7, pc}
 8000e96:	bf00      	nop
 8000e98:	20000008 	.word	0x20000008

08000e9c <__NVIC_SetPriorityGrouping>:
           In case of a conflict between priority grouping and available
           priority bits (__NVIC_PRIO_BITS), the smallest possible priority group is set.
  \param [in]      PriorityGroup  Priority grouping field.
 */
__STATIC_INLINE void __NVIC_SetPriorityGrouping(uint32_t PriorityGroup)
{
 8000e9c:	b480      	push	{r7}
 8000e9e:	b085      	sub	sp, #20
 8000ea0:	af00      	add	r7, sp, #0
 8000ea2:	6078      	str	r0, [r7, #4]
  uint32_t reg_value;
  uint32_t PriorityGroupTmp = (PriorityGroup & (uint32_t)0x07UL);             /* only values 0..7 are used          */
 8000ea4:	687b      	ldr	r3, [r7, #4]
 8000ea6:	f003 0307 	and.w	r3, r3, #7
 8000eaa:	60fb      	str	r3, [r7, #12]

  reg_value  =  SCB->AIRCR;                                                   /* read old register configuration    */
 8000eac:	4b0c      	ldr	r3, [pc, #48]	; (8000ee0 <__NVIC_SetPriorityGrouping+0x44>)
 8000eae:	68db      	ldr	r3, [r3, #12]
 8000eb0:	60bb      	str	r3, [r7, #8]
  reg_value &= ~((uint32_t)(SCB_AIRCR_VECTKEY_Msk | SCB_AIRCR_PRIGROUP_Msk)); /* clear bits to change               */
 8000eb2:	68ba      	ldr	r2, [r7, #8]
 8000eb4:	f64f 03ff 	movw	r3, #63743	; 0xf8ff
 8000eb8:	4013      	ands	r3, r2
 8000eba:	60bb      	str	r3, [r7, #8]
  reg_value  =  (reg_value                                   |
                ((uint32_t)0x5FAUL << SCB_AIRCR_VECTKEY_Pos) |
                (PriorityGroupTmp << SCB_AIRCR_PRIGROUP_Pos)  );              /* Insert write key and priority group */
 8000ebc:	68fb      	ldr	r3, [r7, #12]
 8000ebe:	021a      	lsls	r2, r3, #8
                ((uint32_t)0x5FAUL << SCB_AIRCR_VECTKEY_Pos) |
 8000ec0:	68bb      	ldr	r3, [r7, #8]
 8000ec2:	4313      	orrs	r3, r2
  reg_value  =  (reg_value                                   |
 8000ec4:	f043 63bf 	orr.w	r3, r3, #100139008	; 0x5f80000
 8000ec8:	f443 3300 	orr.w	r3, r3, #131072	; 0x20000
 8000ecc:	60bb      	str	r3, [r7, #8]
  SCB->AIRCR =  reg_value;
 8000ece:	4a04      	ldr	r2, [pc, #16]	; (8000ee0 <__NVIC_SetPriorityGrouping+0x44>)
 8000ed0:	68bb      	ldr	r3, [r7, #8]
 8000ed2:	60d3      	str	r3, [r2, #12]
}
 8000ed4:	bf00      	nop
 8000ed6:	3714      	adds	r7, #20
 8000ed8:	46bd      	mov	sp, r7
 8000eda:	f85d 7b04 	ldr.w	r7, [sp], #4
 8000ede:	4770      	bx	lr
 8000ee0:	e000ed00 	.word	0xe000ed00

08000ee4 <__NVIC_GetPriorityGrouping>:
  \brief   Get Priority Grouping
  \details Reads the priority grouping field from the NVIC Interrupt Controller.
  \return                Priority grouping field (SCB->AIRCR [10:8] PRIGROUP field).
 */
__STATIC_INLINE uint32_t __NVIC_GetPriorityGrouping(void)
{
 8000ee4:	b480      	push	{r7}
 8000ee6:	af00      	add	r7, sp, #0
  return ((uint32_t)((SCB->AIRCR & SCB_AIRCR_PRIGROUP_Msk) >> SCB_AIRCR_PRIGROUP_Pos));
 8000ee8:	4b04      	ldr	r3, [pc, #16]	; (8000efc <__NVIC_GetPriorityGrouping+0x18>)
 8000eea:	68db      	ldr	r3, [r3, #12]
 8000eec:	0a1b      	lsrs	r3, r3, #8
 8000eee:	f003 0307 	and.w	r3, r3, #7
}
 8000ef2:	4618      	mov	r0, r3
 8000ef4:	46bd      	mov	sp, r7
 8000ef6:	f85d 7b04 	ldr.w	r7, [sp], #4
 8000efa:	4770      	bx	lr
 8000efc:	e000ed00 	.word	0xe000ed00

08000f00 <__NVIC_SetPriority>:
  \param [in]      IRQn  Interrupt number.
  \param [in]  priority  Priority to set.
  \note    The priority cannot be set for every processor exception.
 */
__STATIC_INLINE void __NVIC_SetPriority(IRQn_Type IRQn, uint32_t priority)
{
 8000f00:	b480      	push	{r7}
 8000f02:	b083      	sub	sp, #12
 8000f04:	af00      	add	r7, sp, #0
 8000f06:	4603      	mov	r3, r0
 8000f08:	6039      	str	r1, [r7, #0]
 8000f0a:	71fb      	strb	r3, [r7, #7]
  if ((int32_t)(IRQn) >= 0)
 8000f0c:	f997 3007 	ldrsb.w	r3, [r7, #7]
 8000f10:	2b00      	cmp	r3, #0
 8000f12:	db0a      	blt.n	8000f2a <__NVIC_SetPriority+0x2a>
  {
    NVIC->IP[((uint32_t)IRQn)]               = (uint8_t)((priority << (8U - __NVIC_PRIO_BITS)) & (uint32_t)0xFFUL);
 8000f14:	683b      	ldr	r3, [r7, #0]
 8000f16:	b2da      	uxtb	r2, r3
 8000f18:	490c      	ldr	r1, [pc, #48]	; (8000f4c <__NVIC_SetPriority+0x4c>)
 8000f1a:	f997 3007 	ldrsb.w	r3, [r7, #7]
 8000f1e:	0112      	lsls	r2, r2, #4
 8000f20:	b2d2      	uxtb	r2, r2
 8000f22:	440b      	add	r3, r1
 8000f24:	f883 2300 	strb.w	r2, [r3, #768]	; 0x300
  }
  else
  {
    SCB->SHP[(((uint32_t)IRQn) & 0xFUL)-4UL] = (uint8_t)((priority << (8U - __NVIC_PRIO_BITS)) & (uint32_t)0xFFUL);
  }
}
 8000f28:	e00a      	b.n	8000f40 <__NVIC_SetPriority+0x40>
    SCB->SHP[(((uint32_t)IRQn) & 0xFUL)-4UL] = (uint8_t)((priority << (8U - __NVIC_PRIO_BITS)) & (uint32_t)0xFFUL);
 8000f2a:	683b      	ldr	r3, [r7, #0]
 8000f2c:	b2da      	uxtb	r2, r3
 8000f2e:	4908      	ldr	r1, [pc, #32]	; (8000f50 <__NVIC_SetPriority+0x50>)
 8000f30:	79fb      	ldrb	r3, [r7, #7]
 8000f32:	f003 030f 	and.w	r3, r3, #15
 8000f36:	3b04      	subs	r3, #4
 8000f38:	0112      	lsls	r2, r2, #4
 8000f3a:	b2d2      	uxtb	r2, r2
 8000f3c:	440b      	add	r3, r1
 8000f3e:	761a      	strb	r2, [r3, #24]
}
 8000f40:	bf00      	nop
 8000f42:	370c      	adds	r7, #12
 8000f44:	46bd      	mov	sp, r7
 8000f46:	f85d 7b04 	ldr.w	r7, [sp], #4
 8000f4a:	4770      	bx	lr
 8000f4c:	e000e100 	.word	0xe000e100
 8000f50:	e000ed00 	.word	0xe000ed00

08000f54 <NVIC_EncodePriority>:
  \param [in]   PreemptPriority  Preemptive priority value (starting from 0).
  \param [in]       SubPriority  Subpriority value (starting from 0).
  \return                        Encoded priority. Value can be used in the function \ref NVIC_SetPriority().
 */
__STATIC_INLINE uint32_t NVIC_EncodePriority (uint32_t PriorityGroup, uint32_t PreemptPriority, uint32_t SubPriority)
{
 8000f54:	b480      	push	{r7}
 8000f56:	b089      	sub	sp, #36	; 0x24
 8000f58:	af00      	add	r7, sp, #0
 8000f5a:	60f8      	str	r0, [r7, #12]
 8000f5c:	60b9      	str	r1, [r7, #8]
 8000f5e:	607a      	str	r2, [r7, #4]
  uint32_t PriorityGroupTmp = (PriorityGroup & (uint32_t)0x07UL);   /* only values 0..7 are used          */
 8000f60:	68fb      	ldr	r3, [r7, #12]
 8000f62:	f003 0307 	and.w	r3, r3, #7
 8000f66:	61fb      	str	r3, [r7, #28]
  uint32_t PreemptPriorityBits;
  uint32_t SubPriorityBits;

  PreemptPriorityBits = ((7UL - PriorityGroupTmp) > (uint32_t)(__NVIC_PRIO_BITS)) ? (uint32_t)(__NVIC_PRIO_BITS) : (uint32_t)(7UL - PriorityGroupTmp);
 8000f68:	69fb      	ldr	r3, [r7, #28]
 8000f6a:	f1c3 0307 	rsb	r3, r3, #7
 8000f6e:	2b04      	cmp	r3, #4
 8000f70:	bf28      	it	cs
 8000f72:	2304      	movcs	r3, #4
 8000f74:	61bb      	str	r3, [r7, #24]
  SubPriorityBits     = ((PriorityGroupTmp + (uint32_t)(__NVIC_PRIO_BITS)) < (uint32_t)7UL) ? (uint32_t)0UL : (uint32_t)((PriorityGroupTmp - 7UL) + (uint32_t)(__NVIC_PRIO_BITS));
 8000f76:	69fb      	ldr	r3, [r7, #28]
 8000f78:	3304      	adds	r3, #4
 8000f7a:	2b06      	cmp	r3, #6
 8000f7c:	d902      	bls.n	8000f84 <NVIC_EncodePriority+0x30>
 8000f7e:	69fb      	ldr	r3, [r7, #28]
 8000f80:	3b03      	subs	r3, #3
 8000f82:	e000      	b.n	8000f86 <NVIC_EncodePriority+0x32>
 8000f84:	2300      	movs	r3, #0
 8000f86:	617b      	str	r3, [r7, #20]

  return (
           ((PreemptPriority & (uint32_t)((1UL << (PreemptPriorityBits)) - 1UL)) << SubPriorityBits) |
 8000f88:	f04f 32ff 	mov.w	r2, #4294967295
 8000f8c:	69bb      	ldr	r3, [r7, #24]
 8000f8e:	fa02 f303 	lsl.w	r3, r2, r3
 8000f92:	43da      	mvns	r2, r3
 8000f94:	68bb      	ldr	r3, [r7, #8]
 8000f96:	401a      	ands	r2, r3
 8000f98:	697b      	ldr	r3, [r7, #20]
 8000f9a:	409a      	lsls	r2, r3
           ((SubPriority     & (uint32_t)((1UL << (SubPriorityBits    )) - 1UL)))
 8000f9c:	f04f 31ff 	mov.w	r1, #4294967295
 8000fa0:	697b      	ldr	r3, [r7, #20]
 8000fa2:	fa01 f303 	lsl.w	r3, r1, r3
 8000fa6:	43d9      	mvns	r1, r3
 8000fa8:	687b      	ldr	r3, [r7, #4]
 8000faa:	400b      	ands	r3, r1
           ((PreemptPriority & (uint32_t)((1UL << (PreemptPriorityBits)) - 1UL)) << SubPriorityBits) |
 8000fac:	4313      	orrs	r3, r2
         );
}
 8000fae:	4618      	mov	r0, r3
 8000fb0:	3724      	adds	r7, #36	; 0x24
 8000fb2:	46bd      	mov	sp, r7
 8000fb4:	f85d 7b04 	ldr.w	r7, [sp], #4
 8000fb8:	4770      	bx	lr
	...

08000fbc <SysTick_Config>:
  \note    When the variable <b>__Vendor_SysTickConfig</b> is set to 1, then the
           function <b>SysTick_Config</b> is not included. In this case, the file <b><i>device</i>.h</b>
           must contain a vendor-specific implementation of this function.
 */
__STATIC_INLINE uint32_t SysTick_Config(uint32_t ticks)
{
 8000fbc:	b580      	push	{r7, lr}
 8000fbe:	b082      	sub	sp, #8
 8000fc0:	af00      	add	r7, sp, #0
 8000fc2:	6078      	str	r0, [r7, #4]
  if ((ticks - 1UL) > SysTick_LOAD_RELOAD_Msk)
 8000fc4:	687b      	ldr	r3, [r7, #4]
 8000fc6:	3b01      	subs	r3, #1
 8000fc8:	f1b3 7f80 	cmp.w	r3, #16777216	; 0x1000000
 8000fcc:	d301      	bcc.n	8000fd2 <SysTick_Config+0x16>
  {
    return (1UL);                                                   /* Reload value impossible */
 8000fce:	2301      	movs	r3, #1
 8000fd0:	e00f      	b.n	8000ff2 <SysTick_Config+0x36>
  }

  SysTick->LOAD  = (uint32_t)(ticks - 1UL);                         /* set reload register */
 8000fd2:	4a0a      	ldr	r2, [pc, #40]	; (8000ffc <SysTick_Config+0x40>)
 8000fd4:	687b      	ldr	r3, [r7, #4]
 8000fd6:	3b01      	subs	r3, #1
 8000fd8:	6053      	str	r3, [r2, #4]
  NVIC_SetPriority (SysTick_IRQn, (1UL << __NVIC_PRIO_BITS) - 1UL); /* set Priority for Systick Interrupt */
 8000fda:	210f      	movs	r1, #15
 8000fdc:	f04f 30ff 	mov.w	r0, #4294967295
 8000fe0:	f7ff ff8e 	bl	8000f00 <__NVIC_SetPriority>
  SysTick->VAL   = 0UL;                                             /* Load the SysTick Counter Value */
 8000fe4:	4b05      	ldr	r3, [pc, #20]	; (8000ffc <SysTick_Config+0x40>)
 8000fe6:	2200      	movs	r2, #0
 8000fe8:	609a      	str	r2, [r3, #8]
  SysTick->CTRL  = SysTick_CTRL_CLKSOURCE_Msk |
 8000fea:	4b04      	ldr	r3, [pc, #16]	; (8000ffc <SysTick_Config+0x40>)
 8000fec:	2207      	movs	r2, #7
 8000fee:	601a      	str	r2, [r3, #0]
                   SysTick_CTRL_TICKINT_Msk   |
                   SysTick_CTRL_ENABLE_Msk;                         /* Enable SysTick IRQ and SysTick Timer */
  return (0UL);                                                     /* Function successful */
 8000ff0:	2300      	movs	r3, #0
}
 8000ff2:	4618      	mov	r0, r3
 8000ff4:	3708      	adds	r7, #8
 8000ff6:	46bd      	mov	sp, r7
 8000ff8:	bd80      	pop	{r7, pc}
 8000ffa:	bf00      	nop
 8000ffc:	e000e010 	.word	0xe000e010

08001000 <HAL_NVIC_SetPriorityGrouping>:
  * @note   When the NVIC_PriorityGroup_0 is selected, IRQ preemption is no more possible. 
  *         The pending IRQ priority will be managed only by the subpriority. 
  * @retval None
  */
void HAL_NVIC_SetPriorityGrouping(uint32_t PriorityGroup)
{
 8001000:	b580      	push	{r7, lr}
 8001002:	b082      	sub	sp, #8
 8001004:	af00      	add	r7, sp, #0
 8001006:	6078      	str	r0, [r7, #4]
  /* Check the parameters */
  assert_param(IS_NVIC_PRIORITY_GROUP(PriorityGroup));
  
  /* Set the PRIGROUP[10:8] bits according to the PriorityGroup parameter value */
  NVIC_SetPriorityGrouping(PriorityGroup);
 8001008:	6878      	ldr	r0, [r7, #4]
 800100a:	f7ff ff47 	bl	8000e9c <__NVIC_SetPriorityGrouping>
}
 800100e:	bf00      	nop
 8001010:	3708      	adds	r7, #8
 8001012:	46bd      	mov	sp, r7
 8001014:	bd80      	pop	{r7, pc}

08001016 <HAL_NVIC_SetPriority>:
  *         This parameter can be a value between 0 and 15
  *         A lower priority value indicates a higher priority.          
  * @retval None
  */
void HAL_NVIC_SetPriority(IRQn_Type IRQn, uint32_t PreemptPriority, uint32_t SubPriority)
{ 
 8001016:	b580      	push	{r7, lr}
 8001018:	b086      	sub	sp, #24
 800101a:	af00      	add	r7, sp, #0
 800101c:	4603      	mov	r3, r0
 800101e:	60b9      	str	r1, [r7, #8]
 8001020:	607a      	str	r2, [r7, #4]
 8001022:	73fb      	strb	r3, [r7, #15]
  uint32_t prioritygroup = 0x00U;
 8001024:	2300      	movs	r3, #0
 8001026:	617b      	str	r3, [r7, #20]
  
  /* Check the parameters */
  assert_param(IS_NVIC_SUB_PRIORITY(SubPriority));
  assert_param(IS_NVIC_PREEMPTION_PRIORITY(PreemptPriority));
  
  prioritygroup = NVIC_GetPriorityGrouping();
 8001028:	f7ff ff5c 	bl	8000ee4 <__NVIC_GetPriorityGrouping>
 800102c:	6178      	str	r0, [r7, #20]
  
  NVIC_SetPriority(IRQn, NVIC_EncodePriority(prioritygroup, PreemptPriority, SubPriority));
 800102e:	687a      	ldr	r2, [r7, #4]
 8001030:	68b9      	ldr	r1, [r7, #8]
 8001032:	6978      	ldr	r0, [r7, #20]
 8001034:	f7ff ff8e 	bl	8000f54 <NVIC_EncodePriority>
 8001038:	4602      	mov	r2, r0
 800103a:	f997 300f 	ldrsb.w	r3, [r7, #15]
 800103e:	4611      	mov	r1, r2
 8001040:	4618      	mov	r0, r3
 8001042:	f7ff ff5d 	bl	8000f00 <__NVIC_SetPriority>
}
 8001046:	bf00      	nop
 8001048:	3718      	adds	r7, #24
 800104a:	46bd      	mov	sp, r7
 800104c:	bd80      	pop	{r7, pc}

0800104e <HAL_SYSTICK_Config>:
  * @param  TicksNumb Specifies the ticks Number of ticks between two interrupts.
  * @retval status:  - 0  Function succeeded.
  *                  - 1  Function failed.
  */
uint32_t HAL_SYSTICK_Config(uint32_t TicksNumb)
{
 800104e:	b580      	push	{r7, lr}
 8001050:	b082      	sub	sp, #8
 8001052:	af00      	add	r7, sp, #0
 8001054:	6078      	str	r0, [r7, #4]
   return SysTick_Config(TicksNumb);
 8001056:	6878      	ldr	r0, [r7, #4]
 8001058:	f7ff ffb0 	bl	8000fbc <SysTick_Config>
 800105c:	4603      	mov	r3, r0
}
 800105e:	4618      	mov	r0, r3
 8001060:	3708      	adds	r7, #8
 8001062:	46bd      	mov	sp, r7
 8001064:	bd80      	pop	{r7, pc}
	...

08001068 <HAL_GPIO_Init>:
  * @param  GPIO_Init pointer to a GPIO_InitTypeDef structure that contains
  *         the configuration information for the specified GPIO peripheral.
  * @retval None
  */
void HAL_GPIO_Init(GPIO_TypeDef  *GPIOx, GPIO_InitTypeDef *GPIO_Init)
{
 8001068:	b480      	push	{r7}
 800106a:	b089      	sub	sp, #36	; 0x24
 800106c:	af00      	add	r7, sp, #0
 800106e:	6078      	str	r0, [r7, #4]
 8001070:	6039      	str	r1, [r7, #0]
  uint32_t position;
  uint32_t ioposition = 0x00U;
 8001072:	2300      	movs	r3, #0
 8001074:	617b      	str	r3, [r7, #20]
  uint32_t iocurrent = 0x00U;
 8001076:	2300      	movs	r3, #0
 8001078:	613b      	str	r3, [r7, #16]
  uint32_t temp = 0x00U;
 800107a:	2300      	movs	r3, #0
 800107c:	61bb      	str	r3, [r7, #24]
  assert_param(IS_GPIO_ALL_INSTANCE(GPIOx));
  assert_param(IS_GPIO_PIN(GPIO_Init->Pin));
  assert_param(IS_GPIO_MODE(GPIO_Init->Mode));

  /* Configure the port pins */
  for(position = 0U; position < GPIO_NUMBER; position++)
 800107e:	2300      	movs	r3, #0
 8001080:	61fb      	str	r3, [r7, #28]
 8001082:	e159      	b.n	8001338 <HAL_GPIO_Init+0x2d0>
  {
    /* Get the IO position */
    ioposition = 0x01U << position;
 8001084:	2201      	movs	r2, #1
 8001086:	69fb      	ldr	r3, [r7, #28]
 8001088:	fa02 f303 	lsl.w	r3, r2, r3
 800108c:	617b      	str	r3, [r7, #20]
    /* Get the current IO position */
    iocurrent = (uint32_t)(GPIO_Init->Pin) & ioposition;
 800108e:	683b      	ldr	r3, [r7, #0]
 8001090:	681b      	ldr	r3, [r3, #0]
 8001092:	697a      	ldr	r2, [r7, #20]
 8001094:	4013      	ands	r3, r2
 8001096:	613b      	str	r3, [r7, #16]

    if(iocurrent == ioposition)
 8001098:	693a      	ldr	r2, [r7, #16]
 800109a:	697b      	ldr	r3, [r7, #20]
 800109c:	429a      	cmp	r2, r3
 800109e:	f040 8148 	bne.w	8001332 <HAL_GPIO_Init+0x2ca>
    {
      /*--------------------- GPIO Mode Configuration ------------------------*/
      /* In case of Output or Alternate function mode selection */
      if(((GPIO_Init->Mode & GPIO_MODE) == MODE_OUTPUT) || \
 80010a2:	683b      	ldr	r3, [r7, #0]
 80010a4:	685b      	ldr	r3, [r3, #4]
 80010a6:	f003 0303 	and.w	r3, r3, #3
 80010aa:	2b01      	cmp	r3, #1
 80010ac:	d005      	beq.n	80010ba <HAL_GPIO_Init+0x52>
          (GPIO_Init->Mode & GPIO_MODE) == MODE_AF)
 80010ae:	683b      	ldr	r3, [r7, #0]
 80010b0:	685b      	ldr	r3, [r3, #4]
 80010b2:	f003 0303 	and.w	r3, r3, #3
      if(((GPIO_Init->Mode & GPIO_MODE) == MODE_OUTPUT) || \
 80010b6:	2b02      	cmp	r3, #2
 80010b8:	d130      	bne.n	800111c <HAL_GPIO_Init+0xb4>
      {
        /* Check the Speed parameter */
        assert_param(IS_GPIO_SPEED(GPIO_Init->Speed));
        /* Configure the IO Speed */
        temp = GPIOx->OSPEEDR; 
 80010ba:	687b      	ldr	r3, [r7, #4]
 80010bc:	689b      	ldr	r3, [r3, #8]
 80010be:	61bb      	str	r3, [r7, #24]
        temp &= ~(GPIO_OSPEEDER_OSPEEDR0 << (position * 2U));
 80010c0:	69fb      	ldr	r3, [r7, #28]
 80010c2:	005b      	lsls	r3, r3, #1
 80010c4:	2203      	movs	r2, #3
 80010c6:	fa02 f303 	lsl.w	r3, r2, r3
 80010ca:	43db      	mvns	r3, r3
 80010cc:	69ba      	ldr	r2, [r7, #24]
 80010ce:	4013      	ands	r3, r2
 80010d0:	61bb      	str	r3, [r7, #24]
        temp |= (GPIO_Init->Speed << (position * 2U));
 80010d2:	683b      	ldr	r3, [r7, #0]
 80010d4:	68da      	ldr	r2, [r3, #12]
 80010d6:	69fb      	ldr	r3, [r7, #28]
 80010d8:	005b      	lsls	r3, r3, #1
 80010da:	fa02 f303 	lsl.w	r3, r2, r3
 80010de:	69ba      	ldr	r2, [r7, #24]
 80010e0:	4313      	orrs	r3, r2
 80010e2:	61bb      	str	r3, [r7, #24]
        GPIOx->OSPEEDR = temp;
 80010e4:	687b      	ldr	r3, [r7, #4]
 80010e6:	69ba      	ldr	r2, [r7, #24]
 80010e8:	609a      	str	r2, [r3, #8]

        /* Configure the IO Output Type */
        temp = GPIOx->OTYPER;
 80010ea:	687b      	ldr	r3, [r7, #4]
 80010ec:	685b      	ldr	r3, [r3, #4]
 80010ee:	61bb      	str	r3, [r7, #24]
        temp &= ~(GPIO_OTYPER_OT_0 << position) ;
 80010f0:	2201      	movs	r2, #1
 80010f2:	69fb      	ldr	r3, [r7, #28]
 80010f4:	fa02 f303 	lsl.w	r3, r2, r3
 80010f8:	43db      	mvns	r3, r3
 80010fa:	69ba      	ldr	r2, [r7, #24]
 80010fc:	4013      	ands	r3, r2
 80010fe:	61bb      	str	r3, [r7, #24]
        temp |= (((GPIO_Init->Mode & OUTPUT_TYPE) >> OUTPUT_TYPE_Pos) << position);
 8001100:	683b      	ldr	r3, [r7, #0]
 8001102:	685b      	ldr	r3, [r3, #4]
 8001104:	091b      	lsrs	r3, r3, #4
 8001106:	f003 0201 	and.w	r2, r3, #1
 800110a:	69fb      	ldr	r3, [r7, #28]
 800110c:	fa02 f303 	lsl.w	r3, r2, r3
 8001110:	69ba      	ldr	r2, [r7, #24]
 8001112:	4313      	orrs	r3, r2
 8001114:	61bb      	str	r3, [r7, #24]
        GPIOx->OTYPER = temp;
 8001116:	687b      	ldr	r3, [r7, #4]
 8001118:	69ba      	ldr	r2, [r7, #24]
 800111a:	605a      	str	r2, [r3, #4]
       }

      if((GPIO_Init->Mode & GPIO_MODE) != MODE_ANALOG)
 800111c:	683b      	ldr	r3, [r7, #0]
 800111e:	685b      	ldr	r3, [r3, #4]
 8001120:	f003 0303 	and.w	r3, r3, #3
 8001124:	2b03      	cmp	r3, #3
 8001126:	d017      	beq.n	8001158 <HAL_GPIO_Init+0xf0>
      {
        /* Check the parameters */
        assert_param(IS_GPIO_PULL(GPIO_Init->Pull));
        
        /* Activate the Pull-up or Pull down resistor for the current IO */
        temp = GPIOx->PUPDR;
 8001128:	687b      	ldr	r3, [r7, #4]
 800112a:	68db      	ldr	r3, [r3, #12]
 800112c:	61bb      	str	r3, [r7, #24]
        temp &= ~(GPIO_PUPDR_PUPDR0 << (position * 2U));
 800112e:	69fb      	ldr	r3, [r7, #28]
 8001130:	005b      	lsls	r3, r3, #1
 8001132:	2203      	movs	r2, #3
 8001134:	fa02 f303 	lsl.w	r3, r2, r3
 8001138:	43db      	mvns	r3, r3
 800113a:	69ba      	ldr	r2, [r7, #24]
 800113c:	4013      	ands	r3, r2
 800113e:	61bb      	str	r3, [r7, #24]
        temp |= ((GPIO_Init->Pull) << (position * 2U));
 8001140:	683b      	ldr	r3, [r7, #0]
 8001142:	689a      	ldr	r2, [r3, #8]
 8001144:	69fb      	ldr	r3, [r7, #28]
 8001146:	005b      	lsls	r3, r3, #1
 8001148:	fa02 f303 	lsl.w	r3, r2, r3
 800114c:	69ba      	ldr	r2, [r7, #24]
 800114e:	4313      	orrs	r3, r2
 8001150:	61bb      	str	r3, [r7, #24]
        GPIOx->PUPDR = temp;
 8001152:	687b      	ldr	r3, [r7, #4]
 8001154:	69ba      	ldr	r2, [r7, #24]
 8001156:	60da      	str	r2, [r3, #12]
      }

      /* In case of Alternate function mode selection */
      if((GPIO_Init->Mode & GPIO_MODE) == MODE_AF)
 8001158:	683b      	ldr	r3, [r7, #0]
 800115a:	685b      	ldr	r3, [r3, #4]
 800115c:	f003 0303 	and.w	r3, r3, #3
 8001160:	2b02      	cmp	r3, #2
 8001162:	d123      	bne.n	80011ac <HAL_GPIO_Init+0x144>
      {
        /* Check the Alternate function parameter */
        assert_param(IS_GPIO_AF(GPIO_Init->Alternate));
        /* Configure Alternate function mapped with the current IO */
        temp = GPIOx->AFR[position >> 3U];
 8001164:	69fb      	ldr	r3, [r7, #28]
 8001166:	08da      	lsrs	r2, r3, #3
 8001168:	687b      	ldr	r3, [r7, #4]
 800116a:	3208      	adds	r2, #8
 800116c:	f853 3022 	ldr.w	r3, [r3, r2, lsl #2]
 8001170:	61bb      	str	r3, [r7, #24]
        temp &= ~(0xFU << ((uint32_t)(position & 0x07U) * 4U)) ;
 8001172:	69fb      	ldr	r3, [r7, #28]
 8001174:	f003 0307 	and.w	r3, r3, #7
 8001178:	009b      	lsls	r3, r3, #2
 800117a:	220f      	movs	r2, #15
 800117c:	fa02 f303 	lsl.w	r3, r2, r3
 8001180:	43db      	mvns	r3, r3
 8001182:	69ba      	ldr	r2, [r7, #24]
 8001184:	4013      	ands	r3, r2
 8001186:	61bb      	str	r3, [r7, #24]
        temp |= ((uint32_t)(GPIO_Init->Alternate) << (((uint32_t)position & 0x07U) * 4U));
 8001188:	683b      	ldr	r3, [r7, #0]
 800118a:	691a      	ldr	r2, [r3, #16]
 800118c:	69fb      	ldr	r3, [r7, #28]
 800118e:	f003 0307 	and.w	r3, r3, #7
 8001192:	009b      	lsls	r3, r3, #2
 8001194:	fa02 f303 	lsl.w	r3, r2, r3
 8001198:	69ba      	ldr	r2, [r7, #24]
 800119a:	4313      	orrs	r3, r2
 800119c:	61bb      	str	r3, [r7, #24]
        GPIOx->AFR[position >> 3U] = temp;
 800119e:	69fb      	ldr	r3, [r7, #28]
 80011a0:	08da      	lsrs	r2, r3, #3
 80011a2:	687b      	ldr	r3, [r7, #4]
 80011a4:	3208      	adds	r2, #8
 80011a6:	69b9      	ldr	r1, [r7, #24]
 80011a8:	f843 1022 	str.w	r1, [r3, r2, lsl #2]
      }

      /* Configure IO Direction mode (Input, Output, Alternate or Analog) */
      temp = GPIOx->MODER;
 80011ac:	687b      	ldr	r3, [r7, #4]
 80011ae:	681b      	ldr	r3, [r3, #0]
 80011b0:	61bb      	str	r3, [r7, #24]
      temp &= ~(GPIO_MODER_MODER0 << (position * 2U));
 80011b2:	69fb      	ldr	r3, [r7, #28]
 80011b4:	005b      	lsls	r3, r3, #1
 80011b6:	2203      	movs	r2, #3
 80011b8:	fa02 f303 	lsl.w	r3, r2, r3
 80011bc:	43db      	mvns	r3, r3
 80011be:	69ba      	ldr	r2, [r7, #24]
 80011c0:	4013      	ands	r3, r2
 80011c2:	61bb      	str	r3, [r7, #24]
      temp |= ((GPIO_Init->Mode & GPIO_MODE) << (position * 2U));
 80011c4:	683b      	ldr	r3, [r7, #0]
 80011c6:	685b      	ldr	r3, [r3, #4]
 80011c8:	f003 0203 	and.w	r2, r3, #3
 80011cc:	69fb      	ldr	r3, [r7, #28]
 80011ce:	005b      	lsls	r3, r3, #1
 80011d0:	fa02 f303 	lsl.w	r3, r2, r3
 80011d4:	69ba      	ldr	r2, [r7, #24]
 80011d6:	4313      	orrs	r3, r2
 80011d8:	61bb      	str	r3, [r7, #24]
      GPIOx->MODER = temp;
 80011da:	687b      	ldr	r3, [r7, #4]
 80011dc:	69ba      	ldr	r2, [r7, #24]
 80011de:	601a      	str	r2, [r3, #0]

      /*--------------------- EXTI Mode Configuration ------------------------*/
      /* Configure the External Interrupt or event for the current IO */
      if((GPIO_Init->Mode & EXTI_MODE) != 0x00U)
 80011e0:	683b      	ldr	r3, [r7, #0]
 80011e2:	685b      	ldr	r3, [r3, #4]
 80011e4:	f403 3340 	and.w	r3, r3, #196608	; 0x30000
 80011e8:	2b00      	cmp	r3, #0
 80011ea:	f000 80a2 	beq.w	8001332 <HAL_GPIO_Init+0x2ca>
      {
        /* Enable SYSCFG Clock */
        __HAL_RCC_SYSCFG_CLK_ENABLE();
 80011ee:	2300      	movs	r3, #0
 80011f0:	60fb      	str	r3, [r7, #12]
 80011f2:	4b57      	ldr	r3, [pc, #348]	; (8001350 <HAL_GPIO_Init+0x2e8>)
 80011f4:	6c5b      	ldr	r3, [r3, #68]	; 0x44
 80011f6:	4a56      	ldr	r2, [pc, #344]	; (8001350 <HAL_GPIO_Init+0x2e8>)
 80011f8:	f443 4380 	orr.w	r3, r3, #16384	; 0x4000
 80011fc:	6453      	str	r3, [r2, #68]	; 0x44
 80011fe:	4b54      	ldr	r3, [pc, #336]	; (8001350 <HAL_GPIO_Init+0x2e8>)
 8001200:	6c5b      	ldr	r3, [r3, #68]	; 0x44
 8001202:	f403 4380 	and.w	r3, r3, #16384	; 0x4000
 8001206:	60fb      	str	r3, [r7, #12]
 8001208:	68fb      	ldr	r3, [r7, #12]

        temp = SYSCFG->EXTICR[position >> 2U];
 800120a:	4a52      	ldr	r2, [pc, #328]	; (8001354 <HAL_GPIO_Init+0x2ec>)
 800120c:	69fb      	ldr	r3, [r7, #28]
 800120e:	089b      	lsrs	r3, r3, #2
 8001210:	3302      	adds	r3, #2
 8001212:	f852 3023 	ldr.w	r3, [r2, r3, lsl #2]
 8001216:	61bb      	str	r3, [r7, #24]
        temp &= ~(0x0FU << (4U * (position & 0x03U)));
 8001218:	69fb      	ldr	r3, [r7, #28]
 800121a:	f003 0303 	and.w	r3, r3, #3
 800121e:	009b      	lsls	r3, r3, #2
 8001220:	220f      	movs	r2, #15
 8001222:	fa02 f303 	lsl.w	r3, r2, r3
 8001226:	43db      	mvns	r3, r3
 8001228:	69ba      	ldr	r2, [r7, #24]
 800122a:	4013      	ands	r3, r2
 800122c:	61bb      	str	r3, [r7, #24]
        temp |= ((uint32_t)(GPIO_GET_INDEX(GPIOx)) << (4U * (position & 0x03U)));
 800122e:	687b      	ldr	r3, [r7, #4]
 8001230:	4a49      	ldr	r2, [pc, #292]	; (8001358 <HAL_GPIO_Init+0x2f0>)
 8001232:	4293      	cmp	r3, r2
 8001234:	d019      	beq.n	800126a <HAL_GPIO_Init+0x202>
 8001236:	687b      	ldr	r3, [r7, #4]
 8001238:	4a48      	ldr	r2, [pc, #288]	; (800135c <HAL_GPIO_Init+0x2f4>)
 800123a:	4293      	cmp	r3, r2
 800123c:	d013      	beq.n	8001266 <HAL_GPIO_Init+0x1fe>
 800123e:	687b      	ldr	r3, [r7, #4]
 8001240:	4a47      	ldr	r2, [pc, #284]	; (8001360 <HAL_GPIO_Init+0x2f8>)
 8001242:	4293      	cmp	r3, r2
 8001244:	d00d      	beq.n	8001262 <HAL_GPIO_Init+0x1fa>
 8001246:	687b      	ldr	r3, [r7, #4]
 8001248:	4a46      	ldr	r2, [pc, #280]	; (8001364 <HAL_GPIO_Init+0x2fc>)
 800124a:	4293      	cmp	r3, r2
 800124c:	d007      	beq.n	800125e <HAL_GPIO_Init+0x1f6>
 800124e:	687b      	ldr	r3, [r7, #4]
 8001250:	4a45      	ldr	r2, [pc, #276]	; (8001368 <HAL_GPIO_Init+0x300>)
 8001252:	4293      	cmp	r3, r2
 8001254:	d101      	bne.n	800125a <HAL_GPIO_Init+0x1f2>
 8001256:	2304      	movs	r3, #4
 8001258:	e008      	b.n	800126c <HAL_GPIO_Init+0x204>
 800125a:	2307      	movs	r3, #7
 800125c:	e006      	b.n	800126c <HAL_GPIO_Init+0x204>
 800125e:	2303      	movs	r3, #3
 8001260:	e004      	b.n	800126c <HAL_GPIO_Init+0x204>
 8001262:	2302      	movs	r3, #2
 8001264:	e002      	b.n	800126c <HAL_GPIO_Init+0x204>
 8001266:	2301      	movs	r3, #1
 8001268:	e000      	b.n	800126c <HAL_GPIO_Init+0x204>
 800126a:	2300      	movs	r3, #0
 800126c:	69fa      	ldr	r2, [r7, #28]
 800126e:	f002 0203 	and.w	r2, r2, #3
 8001272:	0092      	lsls	r2, r2, #2
 8001274:	4093      	lsls	r3, r2
 8001276:	69ba      	ldr	r2, [r7, #24]
 8001278:	4313      	orrs	r3, r2
 800127a:	61bb      	str	r3, [r7, #24]
        SYSCFG->EXTICR[position >> 2U] = temp;
 800127c:	4935      	ldr	r1, [pc, #212]	; (8001354 <HAL_GPIO_Init+0x2ec>)
 800127e:	69fb      	ldr	r3, [r7, #28]
 8001280:	089b      	lsrs	r3, r3, #2
 8001282:	3302      	adds	r3, #2
 8001284:	69ba      	ldr	r2, [r7, #24]
 8001286:	f841 2023 	str.w	r2, [r1, r3, lsl #2]

        /* Clear Rising Falling edge configuration */
        temp = EXTI->RTSR;
 800128a:	4b38      	ldr	r3, [pc, #224]	; (800136c <HAL_GPIO_Init+0x304>)
 800128c:	689b      	ldr	r3, [r3, #8]
 800128e:	61bb      	str	r3, [r7, #24]
        temp &= ~((uint32_t)iocurrent);
 8001290:	693b      	ldr	r3, [r7, #16]
 8001292:	43db      	mvns	r3, r3
 8001294:	69ba      	ldr	r2, [r7, #24]
 8001296:	4013      	ands	r3, r2
 8001298:	61bb      	str	r3, [r7, #24]
        if((GPIO_Init->Mode & TRIGGER_RISING) != 0x00U)
 800129a:	683b      	ldr	r3, [r7, #0]
 800129c:	685b      	ldr	r3, [r3, #4]
 800129e:	f403 1380 	and.w	r3, r3, #1048576	; 0x100000
 80012a2:	2b00      	cmp	r3, #0
 80012a4:	d003      	beq.n	80012ae <HAL_GPIO_Init+0x246>
        {
          temp |= iocurrent;
 80012a6:	69ba      	ldr	r2, [r7, #24]
 80012a8:	693b      	ldr	r3, [r7, #16]
 80012aa:	4313      	orrs	r3, r2
 80012ac:	61bb      	str	r3, [r7, #24]
        }
        EXTI->RTSR = temp;
 80012ae:	4a2f      	ldr	r2, [pc, #188]	; (800136c <HAL_GPIO_Init+0x304>)
 80012b0:	69bb      	ldr	r3, [r7, #24]
 80012b2:	6093      	str	r3, [r2, #8]

        temp = EXTI->FTSR;
 80012b4:	4b2d      	ldr	r3, [pc, #180]	; (800136c <HAL_GPIO_Init+0x304>)
 80012b6:	68db      	ldr	r3, [r3, #12]
 80012b8:	61bb      	str	r3, [r7, #24]
        temp &= ~((uint32_t)iocurrent);
 80012ba:	693b      	ldr	r3, [r7, #16]
 80012bc:	43db      	mvns	r3, r3
 80012be:	69ba      	ldr	r2, [r7, #24]
 80012c0:	4013      	ands	r3, r2
 80012c2:	61bb      	str	r3, [r7, #24]
        if((GPIO_Init->Mode & TRIGGER_FALLING) != 0x00U)
 80012c4:	683b      	ldr	r3, [r7, #0]
 80012c6:	685b      	ldr	r3, [r3, #4]
 80012c8:	f403 1300 	and.w	r3, r3, #2097152	; 0x200000
 80012cc:	2b00      	cmp	r3, #0
 80012ce:	d003      	beq.n	80012d8 <HAL_GPIO_Init+0x270>
        {
          temp |= iocurrent;
 80012d0:	69ba      	ldr	r2, [r7, #24]
 80012d2:	693b      	ldr	r3, [r7, #16]
 80012d4:	4313      	orrs	r3, r2
 80012d6:	61bb      	str	r3, [r7, #24]
        }
        EXTI->FTSR = temp;
 80012d8:	4a24      	ldr	r2, [pc, #144]	; (800136c <HAL_GPIO_Init+0x304>)
 80012da:	69bb      	ldr	r3, [r7, #24]
 80012dc:	60d3      	str	r3, [r2, #12]

        temp = EXTI->EMR;
 80012de:	4b23      	ldr	r3, [pc, #140]	; (800136c <HAL_GPIO_Init+0x304>)
 80012e0:	685b      	ldr	r3, [r3, #4]
 80012e2:	61bb      	str	r3, [r7, #24]
        temp &= ~((uint32_t)iocurrent);
 80012e4:	693b      	ldr	r3, [r7, #16]
 80012e6:	43db      	mvns	r3, r3
 80012e8:	69ba      	ldr	r2, [r7, #24]
 80012ea:	4013      	ands	r3, r2
 80012ec:	61bb      	str	r3, [r7, #24]
        if((GPIO_Init->Mode & EXTI_EVT) != 0x00U)
 80012ee:	683b      	ldr	r3, [r7, #0]
 80012f0:	685b      	ldr	r3, [r3, #4]
 80012f2:	f403 3300 	and.w	r3, r3, #131072	; 0x20000
 80012f6:	2b00      	cmp	r3, #0
 80012f8:	d003      	beq.n	8001302 <HAL_GPIO_Init+0x29a>
        {
          temp |= iocurrent;
 80012fa:	69ba      	ldr	r2, [r7, #24]
 80012fc:	693b      	ldr	r3, [r7, #16]
 80012fe:	4313      	orrs	r3, r2
 8001300:	61bb      	str	r3, [r7, #24]
        }
        EXTI->EMR = temp;
 8001302:	4a1a      	ldr	r2, [pc, #104]	; (800136c <HAL_GPIO_Init+0x304>)
 8001304:	69bb      	ldr	r3, [r7, #24]
 8001306:	6053      	str	r3, [r2, #4]

        /* Clear EXTI line configuration */
        temp = EXTI->IMR;
 8001308:	4b18      	ldr	r3, [pc, #96]	; (800136c <HAL_GPIO_Init+0x304>)
 800130a:	681b      	ldr	r3, [r3, #0]
 800130c:	61bb      	str	r3, [r7, #24]
        temp &= ~((uint32_t)iocurrent);
 800130e:	693b      	ldr	r3, [r7, #16]
 8001310:	43db      	mvns	r3, r3
 8001312:	69ba      	ldr	r2, [r7, #24]
 8001314:	4013      	ands	r3, r2
 8001316:	61bb      	str	r3, [r7, #24]
        if((GPIO_Init->Mode & EXTI_IT) != 0x00U)
 8001318:	683b      	ldr	r3, [r7, #0]
 800131a:	685b      	ldr	r3, [r3, #4]
 800131c:	f403 3380 	and.w	r3, r3, #65536	; 0x10000
 8001320:	2b00      	cmp	r3, #0
 8001322:	d003      	beq.n	800132c <HAL_GPIO_Init+0x2c4>
        {
          temp |= iocurrent;
 8001324:	69ba      	ldr	r2, [r7, #24]
 8001326:	693b      	ldr	r3, [r7, #16]
 8001328:	4313      	orrs	r3, r2
 800132a:	61bb      	str	r3, [r7, #24]
        }
        EXTI->IMR = temp;
 800132c:	4a0f      	ldr	r2, [pc, #60]	; (800136c <HAL_GPIO_Init+0x304>)
 800132e:	69bb      	ldr	r3, [r7, #24]
 8001330:	6013      	str	r3, [r2, #0]
  for(position = 0U; position < GPIO_NUMBER; position++)
 8001332:	69fb      	ldr	r3, [r7, #28]
 8001334:	3301      	adds	r3, #1
 8001336:	61fb      	str	r3, [r7, #28]
 8001338:	69fb      	ldr	r3, [r7, #28]
 800133a:	2b0f      	cmp	r3, #15
 800133c:	f67f aea2 	bls.w	8001084 <HAL_GPIO_Init+0x1c>
      }
    }
  }
}
 8001340:	bf00      	nop
 8001342:	bf00      	nop
 8001344:	3724      	adds	r7, #36	; 0x24
 8001346:	46bd      	mov	sp, r7
 8001348:	f85d 7b04 	ldr.w	r7, [sp], #4
 800134c:	4770      	bx	lr
 800134e:	bf00      	nop
 8001350:	40023800 	.word	0x40023800
 8001354:	40013800 	.word	0x40013800
 8001358:	40020000 	.word	0x40020000
 800135c:	40020400 	.word	0x40020400
 8001360:	40020800 	.word	0x40020800
 8001364:	40020c00 	.word	0x40020c00
 8001368:	40021000 	.word	0x40021000
 800136c:	40013c00 	.word	0x40013c00

08001370 <HAL_GPIO_ReadPin>:
  * @param  GPIO_Pin specifies the port bit to read.
  *         This parameter can be GPIO_PIN_x where x can be (0..15).
  * @retval The input port pin value.
  */
GPIO_PinState HAL_GPIO_ReadPin(GPIO_TypeDef* GPIOx, uint16_t GPIO_Pin)
{
 8001370:	b480      	push	{r7}
 8001372:	b085      	sub	sp, #20
 8001374:	af00      	add	r7, sp, #0
 8001376:	6078      	str	r0, [r7, #4]
 8001378:	460b      	mov	r3, r1
 800137a:	807b      	strh	r3, [r7, #2]
  GPIO_PinState bitstatus;

  /* Check the parameters */
  assert_param(IS_GPIO_PIN(GPIO_Pin));

  if((GPIOx->IDR & GPIO_Pin) != (uint32_t)GPIO_PIN_RESET)
 800137c:	687b      	ldr	r3, [r7, #4]
 800137e:	691a      	ldr	r2, [r3, #16]
 8001380:	887b      	ldrh	r3, [r7, #2]
 8001382:	4013      	ands	r3, r2
 8001384:	2b00      	cmp	r3, #0
 8001386:	d002      	beq.n	800138e <HAL_GPIO_ReadPin+0x1e>
  {
    bitstatus = GPIO_PIN_SET;
 8001388:	2301      	movs	r3, #1
 800138a:	73fb      	strb	r3, [r7, #15]
 800138c:	e001      	b.n	8001392 <HAL_GPIO_ReadPin+0x22>
  }
  else
  {
    bitstatus = GPIO_PIN_RESET;
 800138e:	2300      	movs	r3, #0
 8001390:	73fb      	strb	r3, [r7, #15]
  }
  return bitstatus;
 8001392:	7bfb      	ldrb	r3, [r7, #15]
}
 8001394:	4618      	mov	r0, r3
 8001396:	3714      	adds	r7, #20
 8001398:	46bd      	mov	sp, r7
 800139a:	f85d 7b04 	ldr.w	r7, [sp], #4
 800139e:	4770      	bx	lr

080013a0 <HAL_RCC_OscConfig>:
  *         supported by this API. User should request a transition to HSE Off
  *         first and then HSE On or HSE Bypass.
  * @retval HAL status
  */
__weak HAL_StatusTypeDef HAL_RCC_OscConfig(RCC_OscInitTypeDef  *RCC_OscInitStruct)
{
 80013a0:	b580      	push	{r7, lr}
 80013a2:	b086      	sub	sp, #24
 80013a4:	af00      	add	r7, sp, #0
 80013a6:	6078      	str	r0, [r7, #4]
  uint32_t tickstart;
  uint32_t pll_config;
  /* Check Null pointer */
  if (RCC_OscInitStruct == NULL)
 80013a8:	687b      	ldr	r3, [r7, #4]
 80013aa:	2b00      	cmp	r3, #0
 80013ac:	d101      	bne.n	80013b2 <HAL_RCC_OscConfig+0x12>
  {
    return HAL_ERROR;
 80013ae:	2301      	movs	r3, #1
 80013b0:	e267      	b.n	8001882 <HAL_RCC_OscConfig+0x4e2>
  }

  /* Check the parameters */
  assert_param(IS_RCC_OSCILLATORTYPE(RCC_OscInitStruct->OscillatorType));
  /*------------------------------- HSE Configuration ------------------------*/
  if (((RCC_OscInitStruct->OscillatorType) & RCC_OSCILLATORTYPE_HSE) == RCC_OSCILLATORTYPE_HSE)
 80013b2:	687b      	ldr	r3, [r7, #4]
 80013b4:	681b      	ldr	r3, [r3, #0]
 80013b6:	f003 0301 	and.w	r3, r3, #1
 80013ba:	2b00      	cmp	r3, #0
 80013bc:	d075      	beq.n	80014aa <HAL_RCC_OscConfig+0x10a>
  {
    /* Check the parameters */
    assert_param(IS_RCC_HSE(RCC_OscInitStruct->HSEState));
    /* When the HSE is used as system clock or clock source for PLL in these cases HSE will not disabled */
    if ((__HAL_RCC_GET_SYSCLK_SOURCE() == RCC_CFGR_SWS_HSE) || \
 80013be:	4b88      	ldr	r3, [pc, #544]	; (80015e0 <HAL_RCC_OscConfig+0x240>)
 80013c0:	689b      	ldr	r3, [r3, #8]
 80013c2:	f003 030c 	and.w	r3, r3, #12
 80013c6:	2b04      	cmp	r3, #4
 80013c8:	d00c      	beq.n	80013e4 <HAL_RCC_OscConfig+0x44>
        ((__HAL_RCC_GET_SYSCLK_SOURCE() == RCC_CFGR_SWS_PLL) && ((RCC->PLLCFGR & RCC_PLLCFGR_PLLSRC) == RCC_PLLCFGR_PLLSRC_HSE)))
 80013ca:	4b85      	ldr	r3, [pc, #532]	; (80015e0 <HAL_RCC_OscConfig+0x240>)
 80013cc:	689b      	ldr	r3, [r3, #8]
 80013ce:	f003 030c 	and.w	r3, r3, #12
    if ((__HAL_RCC_GET_SYSCLK_SOURCE() == RCC_CFGR_SWS_HSE) || \
 80013d2:	2b08      	cmp	r3, #8
 80013d4:	d112      	bne.n	80013fc <HAL_RCC_OscConfig+0x5c>
        ((__HAL_RCC_GET_SYSCLK_SOURCE() == RCC_CFGR_SWS_PLL) && ((RCC->PLLCFGR & RCC_PLLCFGR_PLLSRC) == RCC_PLLCFGR_PLLSRC_HSE)))
 80013d6:	4b82      	ldr	r3, [pc, #520]	; (80015e0 <HAL_RCC_OscConfig+0x240>)
 80013d8:	685b      	ldr	r3, [r3, #4]
 80013da:	f403 0380 	and.w	r3, r3, #4194304	; 0x400000
 80013de:	f5b3 0f80 	cmp.w	r3, #4194304	; 0x400000
 80013e2:	d10b      	bne.n	80013fc <HAL_RCC_OscConfig+0x5c>
    {
      if ((__HAL_RCC_GET_FLAG(RCC_FLAG_HSERDY) != RESET) && (RCC_OscInitStruct->HSEState == RCC_HSE_OFF))
 80013e4:	4b7e      	ldr	r3, [pc, #504]	; (80015e0 <HAL_RCC_OscConfig+0x240>)
 80013e6:	681b      	ldr	r3, [r3, #0]
 80013e8:	f403 3300 	and.w	r3, r3, #131072	; 0x20000
 80013ec:	2b00      	cmp	r3, #0
 80013ee:	d05b      	beq.n	80014a8 <HAL_RCC_OscConfig+0x108>
 80013f0:	687b      	ldr	r3, [r7, #4]
 80013f2:	685b      	ldr	r3, [r3, #4]
 80013f4:	2b00      	cmp	r3, #0
 80013f6:	d157      	bne.n	80014a8 <HAL_RCC_OscConfig+0x108>
      {
        return HAL_ERROR;
 80013f8:	2301      	movs	r3, #1
 80013fa:	e242      	b.n	8001882 <HAL_RCC_OscConfig+0x4e2>
      }
    }
    else
    {
      /* Set the new HSE configuration ---------------------------------------*/
      __HAL_RCC_HSE_CONFIG(RCC_OscInitStruct->HSEState);
 80013fc:	687b      	ldr	r3, [r7, #4]
 80013fe:	685b      	ldr	r3, [r3, #4]
 8001400:	f5b3 3f80 	cmp.w	r3, #65536	; 0x10000
 8001404:	d106      	bne.n	8001414 <HAL_RCC_OscConfig+0x74>
 8001406:	4b76      	ldr	r3, [pc, #472]	; (80015e0 <HAL_RCC_OscConfig+0x240>)
 8001408:	681b      	ldr	r3, [r3, #0]
 800140a:	4a75      	ldr	r2, [pc, #468]	; (80015e0 <HAL_RCC_OscConfig+0x240>)
 800140c:	f443 3380 	orr.w	r3, r3, #65536	; 0x10000
 8001410:	6013      	str	r3, [r2, #0]
 8001412:	e01d      	b.n	8001450 <HAL_RCC_OscConfig+0xb0>
 8001414:	687b      	ldr	r3, [r7, #4]
 8001416:	685b      	ldr	r3, [r3, #4]
 8001418:	f5b3 2fa0 	cmp.w	r3, #327680	; 0x50000
 800141c:	d10c      	bne.n	8001438 <HAL_RCC_OscConfig+0x98>
 800141e:	4b70      	ldr	r3, [pc, #448]	; (80015e0 <HAL_RCC_OscConfig+0x240>)
 8001420:	681b      	ldr	r3, [r3, #0]
 8001422:	4a6f      	ldr	r2, [pc, #444]	; (80015e0 <HAL_RCC_OscConfig+0x240>)
 8001424:	f443 2380 	orr.w	r3, r3, #262144	; 0x40000
 8001428:	6013      	str	r3, [r2, #0]
 800142a:	4b6d      	ldr	r3, [pc, #436]	; (80015e0 <HAL_RCC_OscConfig+0x240>)
 800142c:	681b      	ldr	r3, [r3, #0]
 800142e:	4a6c      	ldr	r2, [pc, #432]	; (80015e0 <HAL_RCC_OscConfig+0x240>)
 8001430:	f443 3380 	orr.w	r3, r3, #65536	; 0x10000
 8001434:	6013      	str	r3, [r2, #0]
 8001436:	e00b      	b.n	8001450 <HAL_RCC_OscConfig+0xb0>
 8001438:	4b69      	ldr	r3, [pc, #420]	; (80015e0 <HAL_RCC_OscConfig+0x240>)
 800143a:	681b      	ldr	r3, [r3, #0]
 800143c:	4a68      	ldr	r2, [pc, #416]	; (80015e0 <HAL_RCC_OscConfig+0x240>)
 800143e:	f423 3380 	bic.w	r3, r3, #65536	; 0x10000
 8001442:	6013      	str	r3, [r2, #0]
 8001444:	4b66      	ldr	r3, [pc, #408]	; (80015e0 <HAL_RCC_OscConfig+0x240>)
 8001446:	681b      	ldr	r3, [r3, #0]
 8001448:	4a65      	ldr	r2, [pc, #404]	; (80015e0 <HAL_RCC_OscConfig+0x240>)
 800144a:	f423 2380 	bic.w	r3, r3, #262144	; 0x40000
 800144e:	6013      	str	r3, [r2, #0]

      /* Check the HSE State */
      if ((RCC_OscInitStruct->HSEState) != RCC_HSE_OFF)
 8001450:	687b      	ldr	r3, [r7, #4]
 8001452:	685b      	ldr	r3, [r3, #4]
 8001454:	2b00      	cmp	r3, #0
 8001456:	d013      	beq.n	8001480 <HAL_RCC_OscConfig+0xe0>
      {
        /* Get Start Tick */
        tickstart = HAL_GetTick();
 8001458:	f7ff fcf0 	bl	8000e3c <HAL_GetTick>
 800145c:	6138      	str	r0, [r7, #16]

        /* Wait till HSE is ready */
        while (__HAL_RCC_GET_FLAG(RCC_FLAG_HSERDY) == RESET)
 800145e:	e008      	b.n	8001472 <HAL_RCC_OscConfig+0xd2>
        {
          if ((HAL_GetTick() - tickstart) > HSE_TIMEOUT_VALUE)
 8001460:	f7ff fcec 	bl	8000e3c <HAL_GetTick>
 8001464:	4602      	mov	r2, r0
 8001466:	693b      	ldr	r3, [r7, #16]
 8001468:	1ad3      	subs	r3, r2, r3
 800146a:	2b64      	cmp	r3, #100	; 0x64
 800146c:	d901      	bls.n	8001472 <HAL_RCC_OscConfig+0xd2>
          {
            return HAL_TIMEOUT;
 800146e:	2303      	movs	r3, #3
 8001470:	e207      	b.n	8001882 <HAL_RCC_OscConfig+0x4e2>
        while (__HAL_RCC_GET_FLAG(RCC_FLAG_HSERDY) == RESET)
 8001472:	4b5b      	ldr	r3, [pc, #364]	; (80015e0 <HAL_RCC_OscConfig+0x240>)
 8001474:	681b      	ldr	r3, [r3, #0]
 8001476:	f403 3300 	and.w	r3, r3, #131072	; 0x20000
 800147a:	2b00      	cmp	r3, #0
 800147c:	d0f0      	beq.n	8001460 <HAL_RCC_OscConfig+0xc0>
 800147e:	e014      	b.n	80014aa <HAL_RCC_OscConfig+0x10a>
        }
      }
      else
      {
        /* Get Start Tick */
        tickstart = HAL_GetTick();
 8001480:	f7ff fcdc 	bl	8000e3c <HAL_GetTick>
 8001484:	6138      	str	r0, [r7, #16]

        /* Wait till HSE is bypassed or disabled */
        while (__HAL_RCC_GET_FLAG(RCC_FLAG_HSERDY) != RESET)
 8001486:	e008      	b.n	800149a <HAL_RCC_OscConfig+0xfa>
        {
          if ((HAL_GetTick() - tickstart) > HSE_TIMEOUT_VALUE)
 8001488:	f7ff fcd8 	bl	8000e3c <HAL_GetTick>
 800148c:	4602      	mov	r2, r0
 800148e:	693b      	ldr	r3, [r7, #16]
 8001490:	1ad3      	subs	r3, r2, r3
 8001492:	2b64      	cmp	r3, #100	; 0x64
 8001494:	d901      	bls.n	800149a <HAL_RCC_OscConfig+0xfa>
          {
            return HAL_TIMEOUT;
 8001496:	2303      	movs	r3, #3
 8001498:	e1f3      	b.n	8001882 <HAL_RCC_OscConfig+0x4e2>
        while (__HAL_RCC_GET_FLAG(RCC_FLAG_HSERDY) != RESET)
 800149a:	4b51      	ldr	r3, [pc, #324]	; (80015e0 <HAL_RCC_OscConfig+0x240>)
 800149c:	681b      	ldr	r3, [r3, #0]
 800149e:	f403 3300 	and.w	r3, r3, #131072	; 0x20000
 80014a2:	2b00      	cmp	r3, #0
 80014a4:	d1f0      	bne.n	8001488 <HAL_RCC_OscConfig+0xe8>
 80014a6:	e000      	b.n	80014aa <HAL_RCC_OscConfig+0x10a>
      if ((__HAL_RCC_GET_FLAG(RCC_FLAG_HSERDY) != RESET) && (RCC_OscInitStruct->HSEState == RCC_HSE_OFF))
 80014a8:	bf00      	nop
        }
      }
    }
  }
  /*----------------------------- HSI Configuration --------------------------*/
  if (((RCC_OscInitStruct->OscillatorType) & RCC_OSCILLATORTYPE_HSI) == RCC_OSCILLATORTYPE_HSI)
 80014aa:	687b      	ldr	r3, [r7, #4]
 80014ac:	681b      	ldr	r3, [r3, #0]
 80014ae:	f003 0302 	and.w	r3, r3, #2
 80014b2:	2b00      	cmp	r3, #0
 80014b4:	d063      	beq.n	800157e <HAL_RCC_OscConfig+0x1de>
    /* Check the parameters */
    assert_param(IS_RCC_HSI(RCC_OscInitStruct->HSIState));
    assert_param(IS_RCC_CALIBRATION_VALUE(RCC_OscInitStruct->HSICalibrationValue));

    /* Check if HSI is used as system clock or as PLL source when PLL is selected as system clock */
    if ((__HAL_RCC_GET_SYSCLK_SOURCE() == RCC_CFGR_SWS_HSI) || \
 80014b6:	4b4a      	ldr	r3, [pc, #296]	; (80015e0 <HAL_RCC_OscConfig+0x240>)
 80014b8:	689b      	ldr	r3, [r3, #8]
 80014ba:	f003 030c 	and.w	r3, r3, #12
 80014be:	2b00      	cmp	r3, #0
 80014c0:	d00b      	beq.n	80014da <HAL_RCC_OscConfig+0x13a>
        ((__HAL_RCC_GET_SYSCLK_SOURCE() == RCC_CFGR_SWS_PLL) && ((RCC->PLLCFGR & RCC_PLLCFGR_PLLSRC) == RCC_PLLCFGR_PLLSRC_HSI)))
 80014c2:	4b47      	ldr	r3, [pc, #284]	; (80015e0 <HAL_RCC_OscConfig+0x240>)
 80014c4:	689b      	ldr	r3, [r3, #8]
 80014c6:	f003 030c 	and.w	r3, r3, #12
    if ((__HAL_RCC_GET_SYSCLK_SOURCE() == RCC_CFGR_SWS_HSI) || \
 80014ca:	2b08      	cmp	r3, #8
 80014cc:	d11c      	bne.n	8001508 <HAL_RCC_OscConfig+0x168>
        ((__HAL_RCC_GET_SYSCLK_SOURCE() == RCC_CFGR_SWS_PLL) && ((RCC->PLLCFGR & RCC_PLLCFGR_PLLSRC) == RCC_PLLCFGR_PLLSRC_HSI)))
 80014ce:	4b44      	ldr	r3, [pc, #272]	; (80015e0 <HAL_RCC_OscConfig+0x240>)
 80014d0:	685b      	ldr	r3, [r3, #4]
 80014d2:	f403 0380 	and.w	r3, r3, #4194304	; 0x400000
 80014d6:	2b00      	cmp	r3, #0
 80014d8:	d116      	bne.n	8001508 <HAL_RCC_OscConfig+0x168>
    {
      /* When HSI is used as system clock it will not disabled */
      if ((__HAL_RCC_GET_FLAG(RCC_FLAG_HSIRDY) != RESET) && (RCC_OscInitStruct->HSIState != RCC_HSI_ON))
 80014da:	4b41      	ldr	r3, [pc, #260]	; (80015e0 <HAL_RCC_OscConfig+0x240>)
 80014dc:	681b      	ldr	r3, [r3, #0]
 80014de:	f003 0302 	and.w	r3, r3, #2
 80014e2:	2b00      	cmp	r3, #0
 80014e4:	d005      	beq.n	80014f2 <HAL_RCC_OscConfig+0x152>
 80014e6:	687b      	ldr	r3, [r7, #4]
 80014e8:	68db      	ldr	r3, [r3, #12]
 80014ea:	2b01      	cmp	r3, #1
 80014ec:	d001      	beq.n	80014f2 <HAL_RCC_OscConfig+0x152>
      {
        return HAL_ERROR;
 80014ee:	2301      	movs	r3, #1
 80014f0:	e1c7      	b.n	8001882 <HAL_RCC_OscConfig+0x4e2>
      }
      /* Otherwise, just the calibration is allowed */
      else
      {
        /* Adjusts the Internal High Speed oscillator (HSI) calibration value.*/
        __HAL_RCC_HSI_CALIBRATIONVALUE_ADJUST(RCC_OscInitStruct->HSICalibrationValue);
 80014f2:	4b3b      	ldr	r3, [pc, #236]	; (80015e0 <HAL_RCC_OscConfig+0x240>)
 80014f4:	681b      	ldr	r3, [r3, #0]
 80014f6:	f023 02f8 	bic.w	r2, r3, #248	; 0xf8
 80014fa:	687b      	ldr	r3, [r7, #4]
 80014fc:	691b      	ldr	r3, [r3, #16]
 80014fe:	00db      	lsls	r3, r3, #3
 8001500:	4937      	ldr	r1, [pc, #220]	; (80015e0 <HAL_RCC_OscConfig+0x240>)
 8001502:	4313      	orrs	r3, r2
 8001504:	600b      	str	r3, [r1, #0]
      if ((__HAL_RCC_GET_FLAG(RCC_FLAG_HSIRDY) != RESET) && (RCC_OscInitStruct->HSIState != RCC_HSI_ON))
 8001506:	e03a      	b.n	800157e <HAL_RCC_OscConfig+0x1de>
      }
    }
    else
    {
      /* Check the HSI State */
      if ((RCC_OscInitStruct->HSIState) != RCC_HSI_OFF)
 8001508:	687b      	ldr	r3, [r7, #4]
 800150a:	68db      	ldr	r3, [r3, #12]
 800150c:	2b00      	cmp	r3, #0
 800150e:	d020      	beq.n	8001552 <HAL_RCC_OscConfig+0x1b2>
      {
        /* Enable the Internal High Speed oscillator (HSI). */
        __HAL_RCC_HSI_ENABLE();
 8001510:	4b34      	ldr	r3, [pc, #208]	; (80015e4 <HAL_RCC_OscConfig+0x244>)
 8001512:	2201      	movs	r2, #1
 8001514:	601a      	str	r2, [r3, #0]

        /* Get Start Tick*/
        tickstart = HAL_GetTick();
 8001516:	f7ff fc91 	bl	8000e3c <HAL_GetTick>
 800151a:	6138      	str	r0, [r7, #16]

        /* Wait till HSI is ready */
        while (__HAL_RCC_GET_FLAG(RCC_FLAG_HSIRDY) == RESET)
 800151c:	e008      	b.n	8001530 <HAL_RCC_OscConfig+0x190>
        {
          if ((HAL_GetTick() - tickstart) > HSI_TIMEOUT_VALUE)
 800151e:	f7ff fc8d 	bl	8000e3c <HAL_GetTick>
 8001522:	4602      	mov	r2, r0
 8001524:	693b      	ldr	r3, [r7, #16]
 8001526:	1ad3      	subs	r3, r2, r3
 8001528:	2b02      	cmp	r3, #2
 800152a:	d901      	bls.n	8001530 <HAL_RCC_OscConfig+0x190>
          {
            return HAL_TIMEOUT;
 800152c:	2303      	movs	r3, #3
 800152e:	e1a8      	b.n	8001882 <HAL_RCC_OscConfig+0x4e2>
        while (__HAL_RCC_GET_FLAG(RCC_FLAG_HSIRDY) == RESET)
 8001530:	4b2b      	ldr	r3, [pc, #172]	; (80015e0 <HAL_RCC_OscConfig+0x240>)
 8001532:	681b      	ldr	r3, [r3, #0]
 8001534:	f003 0302 	and.w	r3, r3, #2
 8001538:	2b00      	cmp	r3, #0
 800153a:	d0f0      	beq.n	800151e <HAL_RCC_OscConfig+0x17e>
          }
        }

        /* Adjusts the Internal High Speed oscillator (HSI) calibration value. */
        __HAL_RCC_HSI_CALIBRATIONVALUE_ADJUST(RCC_OscInitStruct->HSICalibrationValue);
 800153c:	4b28      	ldr	r3, [pc, #160]	; (80015e0 <HAL_RCC_OscConfig+0x240>)
 800153e:	681b      	ldr	r3, [r3, #0]
 8001540:	f023 02f8 	bic.w	r2, r3, #248	; 0xf8
 8001544:	687b      	ldr	r3, [r7, #4]
 8001546:	691b      	ldr	r3, [r3, #16]
 8001548:	00db      	lsls	r3, r3, #3
 800154a:	4925      	ldr	r1, [pc, #148]	; (80015e0 <HAL_RCC_OscConfig+0x240>)
 800154c:	4313      	orrs	r3, r2
 800154e:	600b      	str	r3, [r1, #0]
 8001550:	e015      	b.n	800157e <HAL_RCC_OscConfig+0x1de>
      }
      else
      {
        /* Disable the Internal High Speed oscillator (HSI). */
        __HAL_RCC_HSI_DISABLE();
 8001552:	4b24      	ldr	r3, [pc, #144]	; (80015e4 <HAL_RCC_OscConfig+0x244>)
 8001554:	2200      	movs	r2, #0
 8001556:	601a      	str	r2, [r3, #0]

        /* Get Start Tick*/
        tickstart = HAL_GetTick();
 8001558:	f7ff fc70 	bl	8000e3c <HAL_GetTick>
 800155c:	6138      	str	r0, [r7, #16]

        /* Wait till HSI is ready */
        while (__HAL_RCC_GET_FLAG(RCC_FLAG_HSIRDY) != RESET)
 800155e:	e008      	b.n	8001572 <HAL_RCC_OscConfig+0x1d2>
        {
          if ((HAL_GetTick() - tickstart) > HSI_TIMEOUT_VALUE)
 8001560:	f7ff fc6c 	bl	8000e3c <HAL_GetTick>
 8001564:	4602      	mov	r2, r0
 8001566:	693b      	ldr	r3, [r7, #16]
 8001568:	1ad3      	subs	r3, r2, r3
 800156a:	2b02      	cmp	r3, #2
 800156c:	d901      	bls.n	8001572 <HAL_RCC_OscConfig+0x1d2>
          {
            return HAL_TIMEOUT;
 800156e:	2303      	movs	r3, #3
 8001570:	e187      	b.n	8001882 <HAL_RCC_OscConfig+0x4e2>
        while (__HAL_RCC_GET_FLAG(RCC_FLAG_HSIRDY) != RESET)
 8001572:	4b1b      	ldr	r3, [pc, #108]	; (80015e0 <HAL_RCC_OscConfig+0x240>)
 8001574:	681b      	ldr	r3, [r3, #0]
 8001576:	f003 0302 	and.w	r3, r3, #2
 800157a:	2b00      	cmp	r3, #0
 800157c:	d1f0      	bne.n	8001560 <HAL_RCC_OscConfig+0x1c0>
        }
      }
    }
  }
  /*------------------------------ LSI Configuration -------------------------*/
  if (((RCC_OscInitStruct->OscillatorType) & RCC_OSCILLATORTYPE_LSI) == RCC_OSCILLATORTYPE_LSI)
 800157e:	687b      	ldr	r3, [r7, #4]
 8001580:	681b      	ldr	r3, [r3, #0]
 8001582:	f003 0308 	and.w	r3, r3, #8
 8001586:	2b00      	cmp	r3, #0
 8001588:	d036      	beq.n	80015f8 <HAL_RCC_OscConfig+0x258>
  {
    /* Check the parameters */
    assert_param(IS_RCC_LSI(RCC_OscInitStruct->LSIState));

    /* Check the LSI State */
    if ((RCC_OscInitStruct->LSIState) != RCC_LSI_OFF)
 800158a:	687b      	ldr	r3, [r7, #4]
 800158c:	695b      	ldr	r3, [r3, #20]
 800158e:	2b00      	cmp	r3, #0
 8001590:	d016      	beq.n	80015c0 <HAL_RCC_OscConfig+0x220>
    {
      /* Enable the Internal Low Speed oscillator (LSI). */
      __HAL_RCC_LSI_ENABLE();
 8001592:	4b15      	ldr	r3, [pc, #84]	; (80015e8 <HAL_RCC_OscConfig+0x248>)
 8001594:	2201      	movs	r2, #1
 8001596:	601a      	str	r2, [r3, #0]

      /* Get Start Tick*/
      tickstart = HAL_GetTick();
 8001598:	f7ff fc50 	bl	8000e3c <HAL_GetTick>
 800159c:	6138      	str	r0, [r7, #16]

      /* Wait till LSI is ready */
      while (__HAL_RCC_GET_FLAG(RCC_FLAG_LSIRDY) == RESET)
 800159e:	e008      	b.n	80015b2 <HAL_RCC_OscConfig+0x212>
      {
        if ((HAL_GetTick() - tickstart) > LSI_TIMEOUT_VALUE)
 80015a0:	f7ff fc4c 	bl	8000e3c <HAL_GetTick>
 80015a4:	4602      	mov	r2, r0
 80015a6:	693b      	ldr	r3, [r7, #16]
 80015a8:	1ad3      	subs	r3, r2, r3
 80015aa:	2b02      	cmp	r3, #2
 80015ac:	d901      	bls.n	80015b2 <HAL_RCC_OscConfig+0x212>
        {
          return HAL_TIMEOUT;
 80015ae:	2303      	movs	r3, #3
 80015b0:	e167      	b.n	8001882 <HAL_RCC_OscConfig+0x4e2>
      while (__HAL_RCC_GET_FLAG(RCC_FLAG_LSIRDY) == RESET)
 80015b2:	4b0b      	ldr	r3, [pc, #44]	; (80015e0 <HAL_RCC_OscConfig+0x240>)
 80015b4:	6f5b      	ldr	r3, [r3, #116]	; 0x74
 80015b6:	f003 0302 	and.w	r3, r3, #2
 80015ba:	2b00      	cmp	r3, #0
 80015bc:	d0f0      	beq.n	80015a0 <HAL_RCC_OscConfig+0x200>
 80015be:	e01b      	b.n	80015f8 <HAL_RCC_OscConfig+0x258>
      }
    }
    else
    {
      /* Disable the Internal Low Speed oscillator (LSI). */
      __HAL_RCC_LSI_DISABLE();
 80015c0:	4b09      	ldr	r3, [pc, #36]	; (80015e8 <HAL_RCC_OscConfig+0x248>)
 80015c2:	2200      	movs	r2, #0
 80015c4:	601a      	str	r2, [r3, #0]

      /* Get Start Tick */
      tickstart = HAL_GetTick();
 80015c6:	f7ff fc39 	bl	8000e3c <HAL_GetTick>
 80015ca:	6138      	str	r0, [r7, #16]

      /* Wait till LSI is ready */
      while (__HAL_RCC_GET_FLAG(RCC_FLAG_LSIRDY) != RESET)
 80015cc:	e00e      	b.n	80015ec <HAL_RCC_OscConfig+0x24c>
      {
        if ((HAL_GetTick() - tickstart) > LSI_TIMEOUT_VALUE)
 80015ce:	f7ff fc35 	bl	8000e3c <HAL_GetTick>
 80015d2:	4602      	mov	r2, r0
 80015d4:	693b      	ldr	r3, [r7, #16]
 80015d6:	1ad3      	subs	r3, r2, r3
 80015d8:	2b02      	cmp	r3, #2
 80015da:	d907      	bls.n	80015ec <HAL_RCC_OscConfig+0x24c>
        {
          return HAL_TIMEOUT;
 80015dc:	2303      	movs	r3, #3
 80015de:	e150      	b.n	8001882 <HAL_RCC_OscConfig+0x4e2>
 80015e0:	40023800 	.word	0x40023800
 80015e4:	42470000 	.word	0x42470000
 80015e8:	42470e80 	.word	0x42470e80
      while (__HAL_RCC_GET_FLAG(RCC_FLAG_LSIRDY) != RESET)
 80015ec:	4b88      	ldr	r3, [pc, #544]	; (8001810 <HAL_RCC_OscConfig+0x470>)
 80015ee:	6f5b      	ldr	r3, [r3, #116]	; 0x74
 80015f0:	f003 0302 	and.w	r3, r3, #2
 80015f4:	2b00      	cmp	r3, #0
 80015f6:	d1ea      	bne.n	80015ce <HAL_RCC_OscConfig+0x22e>
        }
      }
    }
  }
  /*------------------------------ LSE Configuration -------------------------*/
  if (((RCC_OscInitStruct->OscillatorType) & RCC_OSCILLATORTYPE_LSE) == RCC_OSCILLATORTYPE_LSE)
 80015f8:	687b      	ldr	r3, [r7, #4]
 80015fa:	681b      	ldr	r3, [r3, #0]
 80015fc:	f003 0304 	and.w	r3, r3, #4
 8001600:	2b00      	cmp	r3, #0
 8001602:	f000 8097 	beq.w	8001734 <HAL_RCC_OscConfig+0x394>
  {
    FlagStatus       pwrclkchanged = RESET;
 8001606:	2300      	movs	r3, #0
 8001608:	75fb      	strb	r3, [r7, #23]
    /* Check the parameters */
    assert_param(IS_RCC_LSE(RCC_OscInitStruct->LSEState));

    /* Update LSE configuration in Backup Domain control register    */
    /* Requires to enable write access to Backup Domain of necessary */
    if (__HAL_RCC_PWR_IS_CLK_DISABLED())
 800160a:	4b81      	ldr	r3, [pc, #516]	; (8001810 <HAL_RCC_OscConfig+0x470>)
 800160c:	6c1b      	ldr	r3, [r3, #64]	; 0x40
 800160e:	f003 5380 	and.w	r3, r3, #268435456	; 0x10000000
 8001612:	2b00      	cmp	r3, #0
 8001614:	d10f      	bne.n	8001636 <HAL_RCC_OscConfig+0x296>
    {
      __HAL_RCC_PWR_CLK_ENABLE();
 8001616:	2300      	movs	r3, #0
 8001618:	60bb      	str	r3, [r7, #8]
 800161a:	4b7d      	ldr	r3, [pc, #500]	; (8001810 <HAL_RCC_OscConfig+0x470>)
 800161c:	6c1b      	ldr	r3, [r3, #64]	; 0x40
 800161e:	4a7c      	ldr	r2, [pc, #496]	; (8001810 <HAL_RCC_OscConfig+0x470>)
 8001620:	f043 5380 	orr.w	r3, r3, #268435456	; 0x10000000
 8001624:	6413      	str	r3, [r2, #64]	; 0x40
 8001626:	4b7a      	ldr	r3, [pc, #488]	; (8001810 <HAL_RCC_OscConfig+0x470>)
 8001628:	6c1b      	ldr	r3, [r3, #64]	; 0x40
 800162a:	f003 5380 	and.w	r3, r3, #268435456	; 0x10000000
 800162e:	60bb      	str	r3, [r7, #8]
 8001630:	68bb      	ldr	r3, [r7, #8]
      pwrclkchanged = SET;
 8001632:	2301      	movs	r3, #1
 8001634:	75fb      	strb	r3, [r7, #23]
    }

    if (HAL_IS_BIT_CLR(PWR->CR, PWR_CR_DBP))
 8001636:	4b77      	ldr	r3, [pc, #476]	; (8001814 <HAL_RCC_OscConfig+0x474>)
 8001638:	681b      	ldr	r3, [r3, #0]
 800163a:	f403 7380 	and.w	r3, r3, #256	; 0x100
 800163e:	2b00      	cmp	r3, #0
 8001640:	d118      	bne.n	8001674 <HAL_RCC_OscConfig+0x2d4>
    {
      /* Enable write access to Backup domain */
      SET_BIT(PWR->CR, PWR_CR_DBP);
 8001642:	4b74      	ldr	r3, [pc, #464]	; (8001814 <HAL_RCC_OscConfig+0x474>)
 8001644:	681b      	ldr	r3, [r3, #0]
 8001646:	4a73      	ldr	r2, [pc, #460]	; (8001814 <HAL_RCC_OscConfig+0x474>)
 8001648:	f443 7380 	orr.w	r3, r3, #256	; 0x100
 800164c:	6013      	str	r3, [r2, #0]

      /* Wait for Backup domain Write protection disable */
      tickstart = HAL_GetTick();
 800164e:	f7ff fbf5 	bl	8000e3c <HAL_GetTick>
 8001652:	6138      	str	r0, [r7, #16]

      while (HAL_IS_BIT_CLR(PWR->CR, PWR_CR_DBP))
 8001654:	e008      	b.n	8001668 <HAL_RCC_OscConfig+0x2c8>
      {
        if ((HAL_GetTick() - tickstart) > RCC_DBP_TIMEOUT_VALUE)
 8001656:	f7ff fbf1 	bl	8000e3c <HAL_GetTick>
 800165a:	4602      	mov	r2, r0
 800165c:	693b      	ldr	r3, [r7, #16]
 800165e:	1ad3      	subs	r3, r2, r3
 8001660:	2b02      	cmp	r3, #2
 8001662:	d901      	bls.n	8001668 <HAL_RCC_OscConfig+0x2c8>
        {
          return HAL_TIMEOUT;
 8001664:	2303      	movs	r3, #3
 8001666:	e10c      	b.n	8001882 <HAL_RCC_OscConfig+0x4e2>
      while (HAL_IS_BIT_CLR(PWR->CR, PWR_CR_DBP))
 8001668:	4b6a      	ldr	r3, [pc, #424]	; (8001814 <HAL_RCC_OscConfig+0x474>)
 800166a:	681b      	ldr	r3, [r3, #0]
 800166c:	f403 7380 	and.w	r3, r3, #256	; 0x100
 8001670:	2b00      	cmp	r3, #0
 8001672:	d0f0      	beq.n	8001656 <HAL_RCC_OscConfig+0x2b6>
        }
      }
    }

    /* Set the new LSE configuration -----------------------------------------*/
    __HAL_RCC_LSE_CONFIG(RCC_OscInitStruct->LSEState);
 8001674:	687b      	ldr	r3, [r7, #4]
 8001676:	689b      	ldr	r3, [r3, #8]
 8001678:	2b01      	cmp	r3, #1
 800167a:	d106      	bne.n	800168a <HAL_RCC_OscConfig+0x2ea>
 800167c:	4b64      	ldr	r3, [pc, #400]	; (8001810 <HAL_RCC_OscConfig+0x470>)
 800167e:	6f1b      	ldr	r3, [r3, #112]	; 0x70
 8001680:	4a63      	ldr	r2, [pc, #396]	; (8001810 <HAL_RCC_OscConfig+0x470>)
 8001682:	f043 0301 	orr.w	r3, r3, #1
 8001686:	6713      	str	r3, [r2, #112]	; 0x70
 8001688:	e01c      	b.n	80016c4 <HAL_RCC_OscConfig+0x324>
 800168a:	687b      	ldr	r3, [r7, #4]
 800168c:	689b      	ldr	r3, [r3, #8]
 800168e:	2b05      	cmp	r3, #5
 8001690:	d10c      	bne.n	80016ac <HAL_RCC_OscConfig+0x30c>
 8001692:	4b5f      	ldr	r3, [pc, #380]	; (8001810 <HAL_RCC_OscConfig+0x470>)
 8001694:	6f1b      	ldr	r3, [r3, #112]	; 0x70
 8001696:	4a5e      	ldr	r2, [pc, #376]	; (8001810 <HAL_RCC_OscConfig+0x470>)
 8001698:	f043 0304 	orr.w	r3, r3, #4
 800169c:	6713      	str	r3, [r2, #112]	; 0x70
 800169e:	4b5c      	ldr	r3, [pc, #368]	; (8001810 <HAL_RCC_OscConfig+0x470>)
 80016a0:	6f1b      	ldr	r3, [r3, #112]	; 0x70
 80016a2:	4a5b      	ldr	r2, [pc, #364]	; (8001810 <HAL_RCC_OscConfig+0x470>)
 80016a4:	f043 0301 	orr.w	r3, r3, #1
 80016a8:	6713      	str	r3, [r2, #112]	; 0x70
 80016aa:	e00b      	b.n	80016c4 <HAL_RCC_OscConfig+0x324>
 80016ac:	4b58      	ldr	r3, [pc, #352]	; (8001810 <HAL_RCC_OscConfig+0x470>)
 80016ae:	6f1b      	ldr	r3, [r3, #112]	; 0x70
 80016b0:	4a57      	ldr	r2, [pc, #348]	; (8001810 <HAL_RCC_OscConfig+0x470>)
 80016b2:	f023 0301 	bic.w	r3, r3, #1
 80016b6:	6713      	str	r3, [r2, #112]	; 0x70
 80016b8:	4b55      	ldr	r3, [pc, #340]	; (8001810 <HAL_RCC_OscConfig+0x470>)
 80016ba:	6f1b      	ldr	r3, [r3, #112]	; 0x70
 80016bc:	4a54      	ldr	r2, [pc, #336]	; (8001810 <HAL_RCC_OscConfig+0x470>)
 80016be:	f023 0304 	bic.w	r3, r3, #4
 80016c2:	6713      	str	r3, [r2, #112]	; 0x70
    /* Check the LSE State */
    if ((RCC_OscInitStruct->LSEState) != RCC_LSE_OFF)
 80016c4:	687b      	ldr	r3, [r7, #4]
 80016c6:	689b      	ldr	r3, [r3, #8]
 80016c8:	2b00      	cmp	r3, #0
 80016ca:	d015      	beq.n	80016f8 <HAL_RCC_OscConfig+0x358>
    {
      /* Get Start Tick*/
      tickstart = HAL_GetTick();
 80016cc:	f7ff fbb6 	bl	8000e3c <HAL_GetTick>
 80016d0:	6138      	str	r0, [r7, #16]

      /* Wait till LSE is ready */
      while (__HAL_RCC_GET_FLAG(RCC_FLAG_LSERDY) == RESET)
 80016d2:	e00a      	b.n	80016ea <HAL_RCC_OscConfig+0x34a>
      {
        if ((HAL_GetTick() - tickstart) > RCC_LSE_TIMEOUT_VALUE)
 80016d4:	f7ff fbb2 	bl	8000e3c <HAL_GetTick>
 80016d8:	4602      	mov	r2, r0
 80016da:	693b      	ldr	r3, [r7, #16]
 80016dc:	1ad3      	subs	r3, r2, r3
 80016de:	f241 3288 	movw	r2, #5000	; 0x1388
 80016e2:	4293      	cmp	r3, r2
 80016e4:	d901      	bls.n	80016ea <HAL_RCC_OscConfig+0x34a>
        {
          return HAL_TIMEOUT;
 80016e6:	2303      	movs	r3, #3
 80016e8:	e0cb      	b.n	8001882 <HAL_RCC_OscConfig+0x4e2>
      while (__HAL_RCC_GET_FLAG(RCC_FLAG_LSERDY) == RESET)
 80016ea:	4b49      	ldr	r3, [pc, #292]	; (8001810 <HAL_RCC_OscConfig+0x470>)
 80016ec:	6f1b      	ldr	r3, [r3, #112]	; 0x70
 80016ee:	f003 0302 	and.w	r3, r3, #2
 80016f2:	2b00      	cmp	r3, #0
 80016f4:	d0ee      	beq.n	80016d4 <HAL_RCC_OscConfig+0x334>
 80016f6:	e014      	b.n	8001722 <HAL_RCC_OscConfig+0x382>
      }
    }
    else
    {
      /* Get Start Tick */
      tickstart = HAL_GetTick();
 80016f8:	f7ff fba0 	bl	8000e3c <HAL_GetTick>
 80016fc:	6138      	str	r0, [r7, #16]

      /* Wait till LSE is ready */
      while (__HAL_RCC_GET_FLAG(RCC_FLAG_LSERDY) != RESET)
 80016fe:	e00a      	b.n	8001716 <HAL_RCC_OscConfig+0x376>
      {
        if ((HAL_GetTick() - tickstart) > RCC_LSE_TIMEOUT_VALUE)
 8001700:	f7ff fb9c 	bl	8000e3c <HAL_GetTick>
 8001704:	4602      	mov	r2, r0
 8001706:	693b      	ldr	r3, [r7, #16]
 8001708:	1ad3      	subs	r3, r2, r3
 800170a:	f241 3288 	movw	r2, #5000	; 0x1388
 800170e:	4293      	cmp	r3, r2
 8001710:	d901      	bls.n	8001716 <HAL_RCC_OscConfig+0x376>
        {
          return HAL_TIMEOUT;
 8001712:	2303      	movs	r3, #3
 8001714:	e0b5      	b.n	8001882 <HAL_RCC_OscConfig+0x4e2>
      while (__HAL_RCC_GET_FLAG(RCC_FLAG_LSERDY) != RESET)
 8001716:	4b3e      	ldr	r3, [pc, #248]	; (8001810 <HAL_RCC_OscConfig+0x470>)
 8001718:	6f1b      	ldr	r3, [r3, #112]	; 0x70
 800171a:	f003 0302 	and.w	r3, r3, #2
 800171e:	2b00      	cmp	r3, #0
 8001720:	d1ee      	bne.n	8001700 <HAL_RCC_OscConfig+0x360>
        }
      }
    }

    /* Restore clock configuration if changed */
    if (pwrclkchanged == SET)
 8001722:	7dfb      	ldrb	r3, [r7, #23]
 8001724:	2b01      	cmp	r3, #1
 8001726:	d105      	bne.n	8001734 <HAL_RCC_OscConfig+0x394>
    {
      __HAL_RCC_PWR_CLK_DISABLE();
 8001728:	4b39      	ldr	r3, [pc, #228]	; (8001810 <HAL_RCC_OscConfig+0x470>)
 800172a:	6c1b      	ldr	r3, [r3, #64]	; 0x40
 800172c:	4a38      	ldr	r2, [pc, #224]	; (8001810 <HAL_RCC_OscConfig+0x470>)
 800172e:	f023 5380 	bic.w	r3, r3, #268435456	; 0x10000000
 8001732:	6413      	str	r3, [r2, #64]	; 0x40
    }
  }
  /*-------------------------------- PLL Configuration -----------------------*/
  /* Check the parameters */
  assert_param(IS_RCC_PLL(RCC_OscInitStruct->PLL.PLLState));
  if ((RCC_OscInitStruct->PLL.PLLState) != RCC_PLL_NONE)
 8001734:	687b      	ldr	r3, [r7, #4]
 8001736:	699b      	ldr	r3, [r3, #24]
 8001738:	2b00      	cmp	r3, #0
 800173a:	f000 80a1 	beq.w	8001880 <HAL_RCC_OscConfig+0x4e0>
  {
    /* Check if the PLL is used as system clock or not */
    if (__HAL_RCC_GET_SYSCLK_SOURCE() != RCC_CFGR_SWS_PLL)
 800173e:	4b34      	ldr	r3, [pc, #208]	; (8001810 <HAL_RCC_OscConfig+0x470>)
 8001740:	689b      	ldr	r3, [r3, #8]
 8001742:	f003 030c 	and.w	r3, r3, #12
 8001746:	2b08      	cmp	r3, #8
 8001748:	d05c      	beq.n	8001804 <HAL_RCC_OscConfig+0x464>
    {
      if ((RCC_OscInitStruct->PLL.PLLState) == RCC_PLL_ON)
 800174a:	687b      	ldr	r3, [r7, #4]
 800174c:	699b      	ldr	r3, [r3, #24]
 800174e:	2b02      	cmp	r3, #2
 8001750:	d141      	bne.n	80017d6 <HAL_RCC_OscConfig+0x436>
        assert_param(IS_RCC_PLLN_VALUE(RCC_OscInitStruct->PLL.PLLN));
        assert_param(IS_RCC_PLLP_VALUE(RCC_OscInitStruct->PLL.PLLP));
        assert_param(IS_RCC_PLLQ_VALUE(RCC_OscInitStruct->PLL.PLLQ));

        /* Disable the main PLL. */
        __HAL_RCC_PLL_DISABLE();
 8001752:	4b31      	ldr	r3, [pc, #196]	; (8001818 <HAL_RCC_OscConfig+0x478>)
 8001754:	2200      	movs	r2, #0
 8001756:	601a      	str	r2, [r3, #0]

        /* Get Start Tick */
        tickstart = HAL_GetTick();
 8001758:	f7ff fb70 	bl	8000e3c <HAL_GetTick>
 800175c:	6138      	str	r0, [r7, #16]

        /* Wait till PLL is disabled */
        while (__HAL_RCC_GET_FLAG(RCC_FLAG_PLLRDY) != RESET)
 800175e:	e008      	b.n	8001772 <HAL_RCC_OscConfig+0x3d2>
        {
          if ((HAL_GetTick() - tickstart) > PLL_TIMEOUT_VALUE)
 8001760:	f7ff fb6c 	bl	8000e3c <HAL_GetTick>
 8001764:	4602      	mov	r2, r0
 8001766:	693b      	ldr	r3, [r7, #16]
 8001768:	1ad3      	subs	r3, r2, r3
 800176a:	2b02      	cmp	r3, #2
 800176c:	d901      	bls.n	8001772 <HAL_RCC_OscConfig+0x3d2>
          {
            return HAL_TIMEOUT;
 800176e:	2303      	movs	r3, #3
 8001770:	e087      	b.n	8001882 <HAL_RCC_OscConfig+0x4e2>
        while (__HAL_RCC_GET_FLAG(RCC_FLAG_PLLRDY) != RESET)
 8001772:	4b27      	ldr	r3, [pc, #156]	; (8001810 <HAL_RCC_OscConfig+0x470>)
 8001774:	681b      	ldr	r3, [r3, #0]
 8001776:	f003 7300 	and.w	r3, r3, #33554432	; 0x2000000
 800177a:	2b00      	cmp	r3, #0
 800177c:	d1f0      	bne.n	8001760 <HAL_RCC_OscConfig+0x3c0>
          }
        }

        /* Configure the main PLL clock source, multiplication and division factors. */
        WRITE_REG(RCC->PLLCFGR, (RCC_OscInitStruct->PLL.PLLSource                                            | \
 800177e:	687b      	ldr	r3, [r7, #4]
 8001780:	69da      	ldr	r2, [r3, #28]
 8001782:	687b      	ldr	r3, [r7, #4]
 8001784:	6a1b      	ldr	r3, [r3, #32]
 8001786:	431a      	orrs	r2, r3
 8001788:	687b      	ldr	r3, [r7, #4]
 800178a:	6a5b      	ldr	r3, [r3, #36]	; 0x24
 800178c:	019b      	lsls	r3, r3, #6
 800178e:	431a      	orrs	r2, r3
 8001790:	687b      	ldr	r3, [r7, #4]
 8001792:	6a9b      	ldr	r3, [r3, #40]	; 0x28
 8001794:	085b      	lsrs	r3, r3, #1
 8001796:	3b01      	subs	r3, #1
 8001798:	041b      	lsls	r3, r3, #16
 800179a:	431a      	orrs	r2, r3
 800179c:	687b      	ldr	r3, [r7, #4]
 800179e:	6adb      	ldr	r3, [r3, #44]	; 0x2c
 80017a0:	061b      	lsls	r3, r3, #24
 80017a2:	491b      	ldr	r1, [pc, #108]	; (8001810 <HAL_RCC_OscConfig+0x470>)
 80017a4:	4313      	orrs	r3, r2
 80017a6:	604b      	str	r3, [r1, #4]
                                 RCC_OscInitStruct->PLL.PLLM                                                 | \
                                 (RCC_OscInitStruct->PLL.PLLN << RCC_PLLCFGR_PLLN_Pos)             | \
                                 (((RCC_OscInitStruct->PLL.PLLP >> 1U) - 1U) << RCC_PLLCFGR_PLLP_Pos) | \
                                 (RCC_OscInitStruct->PLL.PLLQ << RCC_PLLCFGR_PLLQ_Pos)));
        /* Enable the main PLL. */
        __HAL_RCC_PLL_ENABLE();
 80017a8:	4b1b      	ldr	r3, [pc, #108]	; (8001818 <HAL_RCC_OscConfig+0x478>)
 80017aa:	2201      	movs	r2, #1
 80017ac:	601a      	str	r2, [r3, #0]

        /* Get Start Tick */
        tickstart = HAL_GetTick();
 80017ae:	f7ff fb45 	bl	8000e3c <HAL_GetTick>
 80017b2:	6138      	str	r0, [r7, #16]

        /* Wait till PLL is ready */
        while (__HAL_RCC_GET_FLAG(RCC_FLAG_PLLRDY) == RESET)
 80017b4:	e008      	b.n	80017c8 <HAL_RCC_OscConfig+0x428>
        {
          if ((HAL_GetTick() - tickstart) > PLL_TIMEOUT_VALUE)
 80017b6:	f7ff fb41 	bl	8000e3c <HAL_GetTick>
 80017ba:	4602      	mov	r2, r0
 80017bc:	693b      	ldr	r3, [r7, #16]
 80017be:	1ad3      	subs	r3, r2, r3
 80017c0:	2b02      	cmp	r3, #2
 80017c2:	d901      	bls.n	80017c8 <HAL_RCC_OscConfig+0x428>
          {
            return HAL_TIMEOUT;
 80017c4:	2303      	movs	r3, #3
 80017c6:	e05c      	b.n	8001882 <HAL_RCC_OscConfig+0x4e2>
        while (__HAL_RCC_GET_FLAG(RCC_FLAG_PLLRDY) == RESET)
 80017c8:	4b11      	ldr	r3, [pc, #68]	; (8001810 <HAL_RCC_OscConfig+0x470>)
 80017ca:	681b      	ldr	r3, [r3, #0]
 80017cc:	f003 7300 	and.w	r3, r3, #33554432	; 0x2000000
 80017d0:	2b00      	cmp	r3, #0
 80017d2:	d0f0      	beq.n	80017b6 <HAL_RCC_OscConfig+0x416>
 80017d4:	e054      	b.n	8001880 <HAL_RCC_OscConfig+0x4e0>
        }
      }
      else
      {
        /* Disable the main PLL. */
        __HAL_RCC_PLL_DISABLE();
 80017d6:	4b10      	ldr	r3, [pc, #64]	; (8001818 <HAL_RCC_OscConfig+0x478>)
 80017d8:	2200      	movs	r2, #0
 80017da:	601a      	str	r2, [r3, #0]

        /* Get Start Tick */
        tickstart = HAL_GetTick();
 80017dc:	f7ff fb2e 	bl	8000e3c <HAL_GetTick>
 80017e0:	6138      	str	r0, [r7, #16]

        /* Wait till PLL is disabled */
        while (__HAL_RCC_GET_FLAG(RCC_FLAG_PLLRDY) != RESET)
 80017e2:	e008      	b.n	80017f6 <HAL_RCC_OscConfig+0x456>
        {
          if ((HAL_GetTick() - tickstart) > PLL_TIMEOUT_VALUE)
 80017e4:	f7ff fb2a 	bl	8000e3c <HAL_GetTick>
 80017e8:	4602      	mov	r2, r0
 80017ea:	693b      	ldr	r3, [r7, #16]
 80017ec:	1ad3      	subs	r3, r2, r3
 80017ee:	2b02      	cmp	r3, #2
 80017f0:	d901      	bls.n	80017f6 <HAL_RCC_OscConfig+0x456>
          {
            return HAL_TIMEOUT;
 80017f2:	2303      	movs	r3, #3
 80017f4:	e045      	b.n	8001882 <HAL_RCC_OscConfig+0x4e2>
        while (__HAL_RCC_GET_FLAG(RCC_FLAG_PLLRDY) != RESET)
 80017f6:	4b06      	ldr	r3, [pc, #24]	; (8001810 <HAL_RCC_OscConfig+0x470>)
 80017f8:	681b      	ldr	r3, [r3, #0]
 80017fa:	f003 7300 	and.w	r3, r3, #33554432	; 0x2000000
 80017fe:	2b00      	cmp	r3, #0
 8001800:	d1f0      	bne.n	80017e4 <HAL_RCC_OscConfig+0x444>
 8001802:	e03d      	b.n	8001880 <HAL_RCC_OscConfig+0x4e0>
      }
    }
    else
    {
      /* Check if there is a request to disable the PLL used as System clock source */
      if ((RCC_OscInitStruct->PLL.PLLState) == RCC_PLL_OFF)
 8001804:	687b      	ldr	r3, [r7, #4]
 8001806:	699b      	ldr	r3, [r3, #24]
 8001808:	2b01      	cmp	r3, #1
 800180a:	d107      	bne.n	800181c <HAL_RCC_OscConfig+0x47c>
      {
        return HAL_ERROR;
 800180c:	2301      	movs	r3, #1
 800180e:	e038      	b.n	8001882 <HAL_RCC_OscConfig+0x4e2>
 8001810:	40023800 	.word	0x40023800
 8001814:	40007000 	.word	0x40007000
 8001818:	42470060 	.word	0x42470060
      }
      else
      {
        /* Do not return HAL_ERROR if request repeats the current configuration */
        pll_config = RCC->PLLCFGR;
 800181c:	4b1b      	ldr	r3, [pc, #108]	; (800188c <HAL_RCC_OscConfig+0x4ec>)
 800181e:	685b      	ldr	r3, [r3, #4]
 8001820:	60fb      	str	r3, [r7, #12]
            (READ_BIT(pll_config, RCC_PLLCFGR_PLLN) != (RCC_OscInitStruct->PLL.PLLN) << RCC_PLLCFGR_PLLN_Pos) ||
            (READ_BIT(pll_config, RCC_PLLCFGR_PLLP) != (((RCC_OscInitStruct->PLL.PLLP >> 1U) - 1U)) << RCC_PLLCFGR_PLLP_Pos) ||
            (READ_BIT(pll_config, RCC_PLLCFGR_PLLQ) != (RCC_OscInitStruct->PLL.PLLQ << RCC_PLLCFGR_PLLQ_Pos)) ||
            (READ_BIT(pll_config, RCC_PLLCFGR_PLLR) != (RCC_OscInitStruct->PLL.PLLR << RCC_PLLCFGR_PLLR_Pos)))
#else
        if (((RCC_OscInitStruct->PLL.PLLState) == RCC_PLL_OFF) ||
 8001822:	687b      	ldr	r3, [r7, #4]
 8001824:	699b      	ldr	r3, [r3, #24]
 8001826:	2b01      	cmp	r3, #1
 8001828:	d028      	beq.n	800187c <HAL_RCC_OscConfig+0x4dc>
            (READ_BIT(pll_config, RCC_PLLCFGR_PLLSRC) != RCC_OscInitStruct->PLL.PLLSource) ||
 800182a:	68fb      	ldr	r3, [r7, #12]
 800182c:	f403 0280 	and.w	r2, r3, #4194304	; 0x400000
 8001830:	687b      	ldr	r3, [r7, #4]
 8001832:	69db      	ldr	r3, [r3, #28]
        if (((RCC_OscInitStruct->PLL.PLLState) == RCC_PLL_OFF) ||
 8001834:	429a      	cmp	r2, r3
 8001836:	d121      	bne.n	800187c <HAL_RCC_OscConfig+0x4dc>
            (READ_BIT(pll_config, RCC_PLLCFGR_PLLM) != (RCC_OscInitStruct->PLL.PLLM) << RCC_PLLCFGR_PLLM_Pos) ||
 8001838:	68fb      	ldr	r3, [r7, #12]
 800183a:	f003 023f 	and.w	r2, r3, #63	; 0x3f
 800183e:	687b      	ldr	r3, [r7, #4]
 8001840:	6a1b      	ldr	r3, [r3, #32]
            (READ_BIT(pll_config, RCC_PLLCFGR_PLLSRC) != RCC_OscInitStruct->PLL.PLLSource) ||
 8001842:	429a      	cmp	r2, r3
 8001844:	d11a      	bne.n	800187c <HAL_RCC_OscConfig+0x4dc>
            (READ_BIT(pll_config, RCC_PLLCFGR_PLLN) != (RCC_OscInitStruct->PLL.PLLN) << RCC_PLLCFGR_PLLN_Pos) ||
 8001846:	68fa      	ldr	r2, [r7, #12]
 8001848:	f647 73c0 	movw	r3, #32704	; 0x7fc0
 800184c:	4013      	ands	r3, r2
 800184e:	687a      	ldr	r2, [r7, #4]
 8001850:	6a52      	ldr	r2, [r2, #36]	; 0x24
 8001852:	0192      	lsls	r2, r2, #6
            (READ_BIT(pll_config, RCC_PLLCFGR_PLLM) != (RCC_OscInitStruct->PLL.PLLM) << RCC_PLLCFGR_PLLM_Pos) ||
 8001854:	4293      	cmp	r3, r2
 8001856:	d111      	bne.n	800187c <HAL_RCC_OscConfig+0x4dc>
            (READ_BIT(pll_config, RCC_PLLCFGR_PLLP) != (((RCC_OscInitStruct->PLL.PLLP >> 1U) - 1U)) << RCC_PLLCFGR_PLLP_Pos) ||
 8001858:	68fb      	ldr	r3, [r7, #12]
 800185a:	f403 3240 	and.w	r2, r3, #196608	; 0x30000
 800185e:	687b      	ldr	r3, [r7, #4]
 8001860:	6a9b      	ldr	r3, [r3, #40]	; 0x28
 8001862:	085b      	lsrs	r3, r3, #1
 8001864:	3b01      	subs	r3, #1
 8001866:	041b      	lsls	r3, r3, #16
            (READ_BIT(pll_config, RCC_PLLCFGR_PLLN) != (RCC_OscInitStruct->PLL.PLLN) << RCC_PLLCFGR_PLLN_Pos) ||
 8001868:	429a      	cmp	r2, r3
 800186a:	d107      	bne.n	800187c <HAL_RCC_OscConfig+0x4dc>
            (READ_BIT(pll_config, RCC_PLLCFGR_PLLQ) != (RCC_OscInitStruct->PLL.PLLQ << RCC_PLLCFGR_PLLQ_Pos)))
 800186c:	68fb      	ldr	r3, [r7, #12]
 800186e:	f003 6270 	and.w	r2, r3, #251658240	; 0xf000000
 8001872:	687b      	ldr	r3, [r7, #4]
 8001874:	6adb      	ldr	r3, [r3, #44]	; 0x2c
 8001876:	061b      	lsls	r3, r3, #24
            (READ_BIT(pll_config, RCC_PLLCFGR_PLLP) != (((RCC_OscInitStruct->PLL.PLLP >> 1U) - 1U)) << RCC_PLLCFGR_PLLP_Pos) ||
 8001878:	429a      	cmp	r2, r3
 800187a:	d001      	beq.n	8001880 <HAL_RCC_OscConfig+0x4e0>
#endif /* RCC_PLLCFGR_PLLR */
        {
          return HAL_ERROR;
 800187c:	2301      	movs	r3, #1
 800187e:	e000      	b.n	8001882 <HAL_RCC_OscConfig+0x4e2>
        }
      }
    }
  }
  return HAL_OK;
 8001880:	2300      	movs	r3, #0
}
 8001882:	4618      	mov	r0, r3
 8001884:	3718      	adds	r7, #24
 8001886:	46bd      	mov	sp, r7
 8001888:	bd80      	pop	{r7, pc}
 800188a:	bf00      	nop
 800188c:	40023800 	.word	0x40023800

08001890 <HAL_RCC_ClockConfig>:
  *         HPRE[3:0] bits to ensure that HCLK not exceed the maximum allowed frequency
  *         (for more details refer to section above "Initialization/de-initialization functions")
  * @retval None
  */
HAL_StatusTypeDef HAL_RCC_ClockConfig(RCC_ClkInitTypeDef  *RCC_ClkInitStruct, uint32_t FLatency)
{
 8001890:	b580      	push	{r7, lr}
 8001892:	b084      	sub	sp, #16
 8001894:	af00      	add	r7, sp, #0
 8001896:	6078      	str	r0, [r7, #4]
 8001898:	6039      	str	r1, [r7, #0]
  uint32_t tickstart;

  /* Check Null pointer */
  if (RCC_ClkInitStruct == NULL)
 800189a:	687b      	ldr	r3, [r7, #4]
 800189c:	2b00      	cmp	r3, #0
 800189e:	d101      	bne.n	80018a4 <HAL_RCC_ClockConfig+0x14>
  {
    return HAL_ERROR;
 80018a0:	2301      	movs	r3, #1
 80018a2:	e0cc      	b.n	8001a3e <HAL_RCC_ClockConfig+0x1ae>
  /* To correctly read data from FLASH memory, the number of wait states (LATENCY)
    must be correctly programmed according to the frequency of the CPU clock
    (HCLK) and the supply voltage of the device. */

  /* Increasing the number of wait states because of higher CPU frequency */
  if (FLatency > __HAL_FLASH_GET_LATENCY())
 80018a4:	4b68      	ldr	r3, [pc, #416]	; (8001a48 <HAL_RCC_ClockConfig+0x1b8>)
 80018a6:	681b      	ldr	r3, [r3, #0]
 80018a8:	f003 0307 	and.w	r3, r3, #7
 80018ac:	683a      	ldr	r2, [r7, #0]
 80018ae:	429a      	cmp	r2, r3
 80018b0:	d90c      	bls.n	80018cc <HAL_RCC_ClockConfig+0x3c>
  {
    /* Program the new number of wait states to the LATENCY bits in the FLASH_ACR register */
    __HAL_FLASH_SET_LATENCY(FLatency);
 80018b2:	4b65      	ldr	r3, [pc, #404]	; (8001a48 <HAL_RCC_ClockConfig+0x1b8>)
 80018b4:	683a      	ldr	r2, [r7, #0]
 80018b6:	b2d2      	uxtb	r2, r2
 80018b8:	701a      	strb	r2, [r3, #0]

    /* Check that the new number of wait states is taken into account to access the Flash
    memory by reading the FLASH_ACR register */
    if (__HAL_FLASH_GET_LATENCY() != FLatency)
 80018ba:	4b63      	ldr	r3, [pc, #396]	; (8001a48 <HAL_RCC_ClockConfig+0x1b8>)
 80018bc:	681b      	ldr	r3, [r3, #0]
 80018be:	f003 0307 	and.w	r3, r3, #7
 80018c2:	683a      	ldr	r2, [r7, #0]
 80018c4:	429a      	cmp	r2, r3
 80018c6:	d001      	beq.n	80018cc <HAL_RCC_ClockConfig+0x3c>
    {
      return HAL_ERROR;
 80018c8:	2301      	movs	r3, #1
 80018ca:	e0b8      	b.n	8001a3e <HAL_RCC_ClockConfig+0x1ae>
    }
  }

  /*-------------------------- HCLK Configuration --------------------------*/
  if (((RCC_ClkInitStruct->ClockType) & RCC_CLOCKTYPE_HCLK) == RCC_CLOCKTYPE_HCLK)
 80018cc:	687b      	ldr	r3, [r7, #4]
 80018ce:	681b      	ldr	r3, [r3, #0]
 80018d0:	f003 0302 	and.w	r3, r3, #2
 80018d4:	2b00      	cmp	r3, #0
 80018d6:	d020      	beq.n	800191a <HAL_RCC_ClockConfig+0x8a>
  {
    /* Set the highest APBx dividers in order to ensure that we do not go through
       a non-spec phase whatever we decrease or increase HCLK. */
    if (((RCC_ClkInitStruct->ClockType) & RCC_CLOCKTYPE_PCLK1) == RCC_CLOCKTYPE_PCLK1)
 80018d8:	687b      	ldr	r3, [r7, #4]
 80018da:	681b      	ldr	r3, [r3, #0]
 80018dc:	f003 0304 	and.w	r3, r3, #4
 80018e0:	2b00      	cmp	r3, #0
 80018e2:	d005      	beq.n	80018f0 <HAL_RCC_ClockConfig+0x60>
    {
      MODIFY_REG(RCC->CFGR, RCC_CFGR_PPRE1, RCC_HCLK_DIV16);
 80018e4:	4b59      	ldr	r3, [pc, #356]	; (8001a4c <HAL_RCC_ClockConfig+0x1bc>)
 80018e6:	689b      	ldr	r3, [r3, #8]
 80018e8:	4a58      	ldr	r2, [pc, #352]	; (8001a4c <HAL_RCC_ClockConfig+0x1bc>)
 80018ea:	f443 53e0 	orr.w	r3, r3, #7168	; 0x1c00
 80018ee:	6093      	str	r3, [r2, #8]
    }

    if (((RCC_ClkInitStruct->ClockType) & RCC_CLOCKTYPE_PCLK2) == RCC_CLOCKTYPE_PCLK2)
 80018f0:	687b      	ldr	r3, [r7, #4]
 80018f2:	681b      	ldr	r3, [r3, #0]
 80018f4:	f003 0308 	and.w	r3, r3, #8
 80018f8:	2b00      	cmp	r3, #0
 80018fa:	d005      	beq.n	8001908 <HAL_RCC_ClockConfig+0x78>
    {
      MODIFY_REG(RCC->CFGR, RCC_CFGR_PPRE2, (RCC_HCLK_DIV16 << 3));
 80018fc:	4b53      	ldr	r3, [pc, #332]	; (8001a4c <HAL_RCC_ClockConfig+0x1bc>)
 80018fe:	689b      	ldr	r3, [r3, #8]
 8001900:	4a52      	ldr	r2, [pc, #328]	; (8001a4c <HAL_RCC_ClockConfig+0x1bc>)
 8001902:	f443 4360 	orr.w	r3, r3, #57344	; 0xe000
 8001906:	6093      	str	r3, [r2, #8]
    }

    assert_param(IS_RCC_HCLK(RCC_ClkInitStruct->AHBCLKDivider));
    MODIFY_REG(RCC->CFGR, RCC_CFGR_HPRE, RCC_ClkInitStruct->AHBCLKDivider);
 8001908:	4b50      	ldr	r3, [pc, #320]	; (8001a4c <HAL_RCC_ClockConfig+0x1bc>)
 800190a:	689b      	ldr	r3, [r3, #8]
 800190c:	f023 02f0 	bic.w	r2, r3, #240	; 0xf0
 8001910:	687b      	ldr	r3, [r7, #4]
 8001912:	689b      	ldr	r3, [r3, #8]
 8001914:	494d      	ldr	r1, [pc, #308]	; (8001a4c <HAL_RCC_ClockConfig+0x1bc>)
 8001916:	4313      	orrs	r3, r2
 8001918:	608b      	str	r3, [r1, #8]
  }

  /*------------------------- SYSCLK Configuration ---------------------------*/
  if (((RCC_ClkInitStruct->ClockType) & RCC_CLOCKTYPE_SYSCLK) == RCC_CLOCKTYPE_SYSCLK)
 800191a:	687b      	ldr	r3, [r7, #4]
 800191c:	681b      	ldr	r3, [r3, #0]
 800191e:	f003 0301 	and.w	r3, r3, #1
 8001922:	2b00      	cmp	r3, #0
 8001924:	d044      	beq.n	80019b0 <HAL_RCC_ClockConfig+0x120>
  {
    assert_param(IS_RCC_SYSCLKSOURCE(RCC_ClkInitStruct->SYSCLKSource));

    /* HSE is selected as System Clock Source */
    if (RCC_ClkInitStruct->SYSCLKSource == RCC_SYSCLKSOURCE_HSE)
 8001926:	687b      	ldr	r3, [r7, #4]
 8001928:	685b      	ldr	r3, [r3, #4]
 800192a:	2b01      	cmp	r3, #1
 800192c:	d107      	bne.n	800193e <HAL_RCC_ClockConfig+0xae>
    {
      /* Check the HSE ready flag */
      if (__HAL_RCC_GET_FLAG(RCC_FLAG_HSERDY) == RESET)
 800192e:	4b47      	ldr	r3, [pc, #284]	; (8001a4c <HAL_RCC_ClockConfig+0x1bc>)
 8001930:	681b      	ldr	r3, [r3, #0]
 8001932:	f403 3300 	and.w	r3, r3, #131072	; 0x20000
 8001936:	2b00      	cmp	r3, #0
 8001938:	d119      	bne.n	800196e <HAL_RCC_ClockConfig+0xde>
      {
        return HAL_ERROR;
 800193a:	2301      	movs	r3, #1
 800193c:	e07f      	b.n	8001a3e <HAL_RCC_ClockConfig+0x1ae>
      }
    }
    /* PLL is selected as System Clock Source */
    else if ((RCC_ClkInitStruct->SYSCLKSource == RCC_SYSCLKSOURCE_PLLCLK)   ||
 800193e:	687b      	ldr	r3, [r7, #4]
 8001940:	685b      	ldr	r3, [r3, #4]
 8001942:	2b02      	cmp	r3, #2
 8001944:	d003      	beq.n	800194e <HAL_RCC_ClockConfig+0xbe>
             (RCC_ClkInitStruct->SYSCLKSource == RCC_SYSCLKSOURCE_PLLRCLK))
 8001946:	687b      	ldr	r3, [r7, #4]
 8001948:	685b      	ldr	r3, [r3, #4]
    else if ((RCC_ClkInitStruct->SYSCLKSource == RCC_SYSCLKSOURCE_PLLCLK)   ||
 800194a:	2b03      	cmp	r3, #3
 800194c:	d107      	bne.n	800195e <HAL_RCC_ClockConfig+0xce>
    {
      /* Check the PLL ready flag */
      if (__HAL_RCC_GET_FLAG(RCC_FLAG_PLLRDY) == RESET)
 800194e:	4b3f      	ldr	r3, [pc, #252]	; (8001a4c <HAL_RCC_ClockConfig+0x1bc>)
 8001950:	681b      	ldr	r3, [r3, #0]
 8001952:	f003 7300 	and.w	r3, r3, #33554432	; 0x2000000
 8001956:	2b00      	cmp	r3, #0
 8001958:	d109      	bne.n	800196e <HAL_RCC_ClockConfig+0xde>
      {
        return HAL_ERROR;
 800195a:	2301      	movs	r3, #1
 800195c:	e06f      	b.n	8001a3e <HAL_RCC_ClockConfig+0x1ae>
    }
    /* HSI is selected as System Clock Source */
    else
    {
      /* Check the HSI ready flag */
      if (__HAL_RCC_GET_FLAG(RCC_FLAG_HSIRDY) == RESET)
 800195e:	4b3b      	ldr	r3, [pc, #236]	; (8001a4c <HAL_RCC_ClockConfig+0x1bc>)
 8001960:	681b      	ldr	r3, [r3, #0]
 8001962:	f003 0302 	and.w	r3, r3, #2
 8001966:	2b00      	cmp	r3, #0
 8001968:	d101      	bne.n	800196e <HAL_RCC_ClockConfig+0xde>
      {
        return HAL_ERROR;
 800196a:	2301      	movs	r3, #1
 800196c:	e067      	b.n	8001a3e <HAL_RCC_ClockConfig+0x1ae>
      }
    }

    __HAL_RCC_SYSCLK_CONFIG(RCC_ClkInitStruct->SYSCLKSource);
 800196e:	4b37      	ldr	r3, [pc, #220]	; (8001a4c <HAL_RCC_ClockConfig+0x1bc>)
 8001970:	689b      	ldr	r3, [r3, #8]
 8001972:	f023 0203 	bic.w	r2, r3, #3
 8001976:	687b      	ldr	r3, [r7, #4]
 8001978:	685b      	ldr	r3, [r3, #4]
 800197a:	4934      	ldr	r1, [pc, #208]	; (8001a4c <HAL_RCC_ClockConfig+0x1bc>)
 800197c:	4313      	orrs	r3, r2
 800197e:	608b      	str	r3, [r1, #8]

    /* Get Start Tick */
    tickstart = HAL_GetTick();
 8001980:	f7ff fa5c 	bl	8000e3c <HAL_GetTick>
 8001984:	60f8      	str	r0, [r7, #12]

    while (__HAL_RCC_GET_SYSCLK_SOURCE() != (RCC_ClkInitStruct->SYSCLKSource << RCC_CFGR_SWS_Pos))
 8001986:	e00a      	b.n	800199e <HAL_RCC_ClockConfig+0x10e>
    {
      if ((HAL_GetTick() - tickstart) > CLOCKSWITCH_TIMEOUT_VALUE)
 8001988:	f7ff fa58 	bl	8000e3c <HAL_GetTick>
 800198c:	4602      	mov	r2, r0
 800198e:	68fb      	ldr	r3, [r7, #12]
 8001990:	1ad3      	subs	r3, r2, r3
 8001992:	f241 3288 	movw	r2, #5000	; 0x1388
 8001996:	4293      	cmp	r3, r2
 8001998:	d901      	bls.n	800199e <HAL_RCC_ClockConfig+0x10e>
      {
        return HAL_TIMEOUT;
 800199a:	2303      	movs	r3, #3
 800199c:	e04f      	b.n	8001a3e <HAL_RCC_ClockConfig+0x1ae>
    while (__HAL_RCC_GET_SYSCLK_SOURCE() != (RCC_ClkInitStruct->SYSCLKSource << RCC_CFGR_SWS_Pos))
 800199e:	4b2b      	ldr	r3, [pc, #172]	; (8001a4c <HAL_RCC_ClockConfig+0x1bc>)
 80019a0:	689b      	ldr	r3, [r3, #8]
 80019a2:	f003 020c 	and.w	r2, r3, #12
 80019a6:	687b      	ldr	r3, [r7, #4]
 80019a8:	685b      	ldr	r3, [r3, #4]
 80019aa:	009b      	lsls	r3, r3, #2
 80019ac:	429a      	cmp	r2, r3
 80019ae:	d1eb      	bne.n	8001988 <HAL_RCC_ClockConfig+0xf8>
      }
    }
  }

  /* Decreasing the number of wait states because of lower CPU frequency */
  if (FLatency < __HAL_FLASH_GET_LATENCY())
 80019b0:	4b25      	ldr	r3, [pc, #148]	; (8001a48 <HAL_RCC_ClockConfig+0x1b8>)
 80019b2:	681b      	ldr	r3, [r3, #0]
 80019b4:	f003 0307 	and.w	r3, r3, #7
 80019b8:	683a      	ldr	r2, [r7, #0]
 80019ba:	429a      	cmp	r2, r3
 80019bc:	d20c      	bcs.n	80019d8 <HAL_RCC_ClockConfig+0x148>
  {
    /* Program the new number of wait states to the LATENCY bits in the FLASH_ACR register */
    __HAL_FLASH_SET_LATENCY(FLatency);
 80019be:	4b22      	ldr	r3, [pc, #136]	; (8001a48 <HAL_RCC_ClockConfig+0x1b8>)
 80019c0:	683a      	ldr	r2, [r7, #0]
 80019c2:	b2d2      	uxtb	r2, r2
 80019c4:	701a      	strb	r2, [r3, #0]

    /* Check that the new number of wait states is taken into account to access the Flash
    memory by reading the FLASH_ACR register */
    if (__HAL_FLASH_GET_LATENCY() != FLatency)
 80019c6:	4b20      	ldr	r3, [pc, #128]	; (8001a48 <HAL_RCC_ClockConfig+0x1b8>)
 80019c8:	681b      	ldr	r3, [r3, #0]
 80019ca:	f003 0307 	and.w	r3, r3, #7
 80019ce:	683a      	ldr	r2, [r7, #0]
 80019d0:	429a      	cmp	r2, r3
 80019d2:	d001      	beq.n	80019d8 <HAL_RCC_ClockConfig+0x148>
    {
      return HAL_ERROR;
 80019d4:	2301      	movs	r3, #1
 80019d6:	e032      	b.n	8001a3e <HAL_RCC_ClockConfig+0x1ae>
    }
  }

  /*-------------------------- PCLK1 Configuration ---------------------------*/
  if (((RCC_ClkInitStruct->ClockType) & RCC_CLOCKTYPE_PCLK1) == RCC_CLOCKTYPE_PCLK1)
 80019d8:	687b      	ldr	r3, [r7, #4]
 80019da:	681b      	ldr	r3, [r3, #0]
 80019dc:	f003 0304 	and.w	r3, r3, #4
 80019e0:	2b00      	cmp	r3, #0
 80019e2:	d008      	beq.n	80019f6 <HAL_RCC_ClockConfig+0x166>
  {
    assert_param(IS_RCC_PCLK(RCC_ClkInitStruct->APB1CLKDivider));
    MODIFY_REG(RCC->CFGR, RCC_CFGR_PPRE1, RCC_ClkInitStruct->APB1CLKDivider);
 80019e4:	4b19      	ldr	r3, [pc, #100]	; (8001a4c <HAL_RCC_ClockConfig+0x1bc>)
 80019e6:	689b      	ldr	r3, [r3, #8]
 80019e8:	f423 52e0 	bic.w	r2, r3, #7168	; 0x1c00
 80019ec:	687b      	ldr	r3, [r7, #4]
 80019ee:	68db      	ldr	r3, [r3, #12]
 80019f0:	4916      	ldr	r1, [pc, #88]	; (8001a4c <HAL_RCC_ClockConfig+0x1bc>)
 80019f2:	4313      	orrs	r3, r2
 80019f4:	608b      	str	r3, [r1, #8]
  }

  /*-------------------------- PCLK2 Configuration ---------------------------*/
  if (((RCC_ClkInitStruct->ClockType) & RCC_CLOCKTYPE_PCLK2) == RCC_CLOCKTYPE_PCLK2)
 80019f6:	687b      	ldr	r3, [r7, #4]
 80019f8:	681b      	ldr	r3, [r3, #0]
 80019fa:	f003 0308 	and.w	r3, r3, #8
 80019fe:	2b00      	cmp	r3, #0
 8001a00:	d009      	beq.n	8001a16 <HAL_RCC_ClockConfig+0x186>
  {
    assert_param(IS_RCC_PCLK(RCC_ClkInitStruct->APB2CLKDivider));
    MODIFY_REG(RCC->CFGR, RCC_CFGR_PPRE2, ((RCC_ClkInitStruct->APB2CLKDivider) << 3U));
 8001a02:	4b12      	ldr	r3, [pc, #72]	; (8001a4c <HAL_RCC_ClockConfig+0x1bc>)
 8001a04:	689b      	ldr	r3, [r3, #8]
 8001a06:	f423 4260 	bic.w	r2, r3, #57344	; 0xe000
 8001a0a:	687b      	ldr	r3, [r7, #4]
 8001a0c:	691b      	ldr	r3, [r3, #16]
 8001a0e:	00db      	lsls	r3, r3, #3
 8001a10:	490e      	ldr	r1, [pc, #56]	; (8001a4c <HAL_RCC_ClockConfig+0x1bc>)
 8001a12:	4313      	orrs	r3, r2
 8001a14:	608b      	str	r3, [r1, #8]
  }

  /* Update the SystemCoreClock global variable */
  SystemCoreClock = HAL_RCC_GetSysClockFreq() >> AHBPrescTable[(RCC->CFGR & RCC_CFGR_HPRE) >> RCC_CFGR_HPRE_Pos];
 8001a16:	f000 f821 	bl	8001a5c <HAL_RCC_GetSysClockFreq>
 8001a1a:	4602      	mov	r2, r0
 8001a1c:	4b0b      	ldr	r3, [pc, #44]	; (8001a4c <HAL_RCC_ClockConfig+0x1bc>)
 8001a1e:	689b      	ldr	r3, [r3, #8]
 8001a20:	091b      	lsrs	r3, r3, #4
 8001a22:	f003 030f 	and.w	r3, r3, #15
 8001a26:	490a      	ldr	r1, [pc, #40]	; (8001a50 <HAL_RCC_ClockConfig+0x1c0>)
 8001a28:	5ccb      	ldrb	r3, [r1, r3]
 8001a2a:	fa22 f303 	lsr.w	r3, r2, r3
 8001a2e:	4a09      	ldr	r2, [pc, #36]	; (8001a54 <HAL_RCC_ClockConfig+0x1c4>)
 8001a30:	6013      	str	r3, [r2, #0]

  /* Configure the source of time base considering new system clocks settings */
  HAL_InitTick(uwTickPrio);
 8001a32:	4b09      	ldr	r3, [pc, #36]	; (8001a58 <HAL_RCC_ClockConfig+0x1c8>)
 8001a34:	681b      	ldr	r3, [r3, #0]
 8001a36:	4618      	mov	r0, r3
 8001a38:	f7ff f9bc 	bl	8000db4 <HAL_InitTick>

  return HAL_OK;
 8001a3c:	2300      	movs	r3, #0
}
 8001a3e:	4618      	mov	r0, r3
 8001a40:	3710      	adds	r7, #16
 8001a42:	46bd      	mov	sp, r7
 8001a44:	bd80      	pop	{r7, pc}
 8001a46:	bf00      	nop
 8001a48:	40023c00 	.word	0x40023c00
 8001a4c:	40023800 	.word	0x40023800
 8001a50:	08004730 	.word	0x08004730
 8001a54:	20000000 	.word	0x20000000
 8001a58:	20000004 	.word	0x20000004

08001a5c <HAL_RCC_GetSysClockFreq>:
  *
  *
  * @retval SYSCLK frequency
  */
__weak uint32_t HAL_RCC_GetSysClockFreq(void)
{
 8001a5c:	e92d 4fb0 	stmdb	sp!, {r4, r5, r7, r8, r9, sl, fp, lr}
 8001a60:	b094      	sub	sp, #80	; 0x50
 8001a62:	af00      	add	r7, sp, #0
  uint32_t pllm = 0U;
 8001a64:	2300      	movs	r3, #0
 8001a66:	647b      	str	r3, [r7, #68]	; 0x44
  uint32_t pllvco = 0U;
 8001a68:	2300      	movs	r3, #0
 8001a6a:	64fb      	str	r3, [r7, #76]	; 0x4c
  uint32_t pllp = 0U;
 8001a6c:	2300      	movs	r3, #0
 8001a6e:	643b      	str	r3, [r7, #64]	; 0x40
  uint32_t sysclockfreq = 0U;
 8001a70:	2300      	movs	r3, #0
 8001a72:	64bb      	str	r3, [r7, #72]	; 0x48

  /* Get SYSCLK source -------------------------------------------------------*/
  switch (RCC->CFGR & RCC_CFGR_SWS)
 8001a74:	4b79      	ldr	r3, [pc, #484]	; (8001c5c <HAL_RCC_GetSysClockFreq+0x200>)
 8001a76:	689b      	ldr	r3, [r3, #8]
 8001a78:	f003 030c 	and.w	r3, r3, #12
 8001a7c:	2b08      	cmp	r3, #8
 8001a7e:	d00d      	beq.n	8001a9c <HAL_RCC_GetSysClockFreq+0x40>
 8001a80:	2b08      	cmp	r3, #8
 8001a82:	f200 80e1 	bhi.w	8001c48 <HAL_RCC_GetSysClockFreq+0x1ec>
 8001a86:	2b00      	cmp	r3, #0
 8001a88:	d002      	beq.n	8001a90 <HAL_RCC_GetSysClockFreq+0x34>
 8001a8a:	2b04      	cmp	r3, #4
 8001a8c:	d003      	beq.n	8001a96 <HAL_RCC_GetSysClockFreq+0x3a>
 8001a8e:	e0db      	b.n	8001c48 <HAL_RCC_GetSysClockFreq+0x1ec>
  {
    case RCC_CFGR_SWS_HSI:  /* HSI used as system clock source */
    {
      sysclockfreq = HSI_VALUE;
 8001a90:	4b73      	ldr	r3, [pc, #460]	; (8001c60 <HAL_RCC_GetSysClockFreq+0x204>)
 8001a92:	64bb      	str	r3, [r7, #72]	; 0x48
      break;
 8001a94:	e0db      	b.n	8001c4e <HAL_RCC_GetSysClockFreq+0x1f2>
    }
    case RCC_CFGR_SWS_HSE:  /* HSE used as system clock  source */
    {
      sysclockfreq = HSE_VALUE;
 8001a96:	4b73      	ldr	r3, [pc, #460]	; (8001c64 <HAL_RCC_GetSysClockFreq+0x208>)
 8001a98:	64bb      	str	r3, [r7, #72]	; 0x48
      break;
 8001a9a:	e0d8      	b.n	8001c4e <HAL_RCC_GetSysClockFreq+0x1f2>
    }
    case RCC_CFGR_SWS_PLL:  /* PLL used as system clock  source */
    {
      /* PLL_VCO = (HSE_VALUE or HSI_VALUE / PLLM) * PLLN
      SYSCLK = PLL_VCO / PLLP */
      pllm = RCC->PLLCFGR & RCC_PLLCFGR_PLLM;
 8001a9c:	4b6f      	ldr	r3, [pc, #444]	; (8001c5c <HAL_RCC_GetSysClockFreq+0x200>)
 8001a9e:	685b      	ldr	r3, [r3, #4]
 8001aa0:	f003 033f 	and.w	r3, r3, #63	; 0x3f
 8001aa4:	647b      	str	r3, [r7, #68]	; 0x44
      if (__HAL_RCC_GET_PLL_OSCSOURCE() != RCC_PLLSOURCE_HSI)
 8001aa6:	4b6d      	ldr	r3, [pc, #436]	; (8001c5c <HAL_RCC_GetSysClockFreq+0x200>)
 8001aa8:	685b      	ldr	r3, [r3, #4]
 8001aaa:	f403 0380 	and.w	r3, r3, #4194304	; 0x400000
 8001aae:	2b00      	cmp	r3, #0
 8001ab0:	d063      	beq.n	8001b7a <HAL_RCC_GetSysClockFreq+0x11e>
      {
        /* HSE used as PLL clock source */
        pllvco = (uint32_t)((((uint64_t) HSE_VALUE * ((uint64_t)((RCC->PLLCFGR & RCC_PLLCFGR_PLLN) >> RCC_PLLCFGR_PLLN_Pos)))) / (uint64_t)pllm);
 8001ab2:	4b6a      	ldr	r3, [pc, #424]	; (8001c5c <HAL_RCC_GetSysClockFreq+0x200>)
 8001ab4:	685b      	ldr	r3, [r3, #4]
 8001ab6:	099b      	lsrs	r3, r3, #6
 8001ab8:	2200      	movs	r2, #0
 8001aba:	63bb      	str	r3, [r7, #56]	; 0x38
 8001abc:	63fa      	str	r2, [r7, #60]	; 0x3c
 8001abe:	6bbb      	ldr	r3, [r7, #56]	; 0x38
 8001ac0:	f3c3 0308 	ubfx	r3, r3, #0, #9
 8001ac4:	633b      	str	r3, [r7, #48]	; 0x30
 8001ac6:	2300      	movs	r3, #0
 8001ac8:	637b      	str	r3, [r7, #52]	; 0x34
 8001aca:	e9d7 450c 	ldrd	r4, r5, [r7, #48]	; 0x30
 8001ace:	4622      	mov	r2, r4
 8001ad0:	462b      	mov	r3, r5
 8001ad2:	f04f 0000 	mov.w	r0, #0
 8001ad6:	f04f 0100 	mov.w	r1, #0
 8001ada:	0159      	lsls	r1, r3, #5
 8001adc:	ea41 61d2 	orr.w	r1, r1, r2, lsr #27
 8001ae0:	0150      	lsls	r0, r2, #5
 8001ae2:	4602      	mov	r2, r0
 8001ae4:	460b      	mov	r3, r1
 8001ae6:	4621      	mov	r1, r4
 8001ae8:	1a51      	subs	r1, r2, r1
 8001aea:	6139      	str	r1, [r7, #16]
 8001aec:	4629      	mov	r1, r5
 8001aee:	eb63 0301 	sbc.w	r3, r3, r1
 8001af2:	617b      	str	r3, [r7, #20]
 8001af4:	f04f 0200 	mov.w	r2, #0
 8001af8:	f04f 0300 	mov.w	r3, #0
 8001afc:	e9d7 ab04 	ldrd	sl, fp, [r7, #16]
 8001b00:	4659      	mov	r1, fp
 8001b02:	018b      	lsls	r3, r1, #6
 8001b04:	4651      	mov	r1, sl
 8001b06:	ea43 6391 	orr.w	r3, r3, r1, lsr #26
 8001b0a:	4651      	mov	r1, sl
 8001b0c:	018a      	lsls	r2, r1, #6
 8001b0e:	4651      	mov	r1, sl
 8001b10:	ebb2 0801 	subs.w	r8, r2, r1
 8001b14:	4659      	mov	r1, fp
 8001b16:	eb63 0901 	sbc.w	r9, r3, r1
 8001b1a:	f04f 0200 	mov.w	r2, #0
 8001b1e:	f04f 0300 	mov.w	r3, #0
 8001b22:	ea4f 03c9 	mov.w	r3, r9, lsl #3
 8001b26:	ea43 7358 	orr.w	r3, r3, r8, lsr #29
 8001b2a:	ea4f 02c8 	mov.w	r2, r8, lsl #3
 8001b2e:	4690      	mov	r8, r2
 8001b30:	4699      	mov	r9, r3
 8001b32:	4623      	mov	r3, r4
 8001b34:	eb18 0303 	adds.w	r3, r8, r3
 8001b38:	60bb      	str	r3, [r7, #8]
 8001b3a:	462b      	mov	r3, r5
 8001b3c:	eb49 0303 	adc.w	r3, r9, r3
 8001b40:	60fb      	str	r3, [r7, #12]
 8001b42:	f04f 0200 	mov.w	r2, #0
 8001b46:	f04f 0300 	mov.w	r3, #0
 8001b4a:	e9d7 4502 	ldrd	r4, r5, [r7, #8]
 8001b4e:	4629      	mov	r1, r5
 8001b50:	024b      	lsls	r3, r1, #9
 8001b52:	4621      	mov	r1, r4
 8001b54:	ea43 53d1 	orr.w	r3, r3, r1, lsr #23
 8001b58:	4621      	mov	r1, r4
 8001b5a:	024a      	lsls	r2, r1, #9
 8001b5c:	4610      	mov	r0, r2
 8001b5e:	4619      	mov	r1, r3
 8001b60:	6c7b      	ldr	r3, [r7, #68]	; 0x44
 8001b62:	2200      	movs	r2, #0
 8001b64:	62bb      	str	r3, [r7, #40]	; 0x28
 8001b66:	62fa      	str	r2, [r7, #44]	; 0x2c
 8001b68:	e9d7 230a 	ldrd	r2, r3, [r7, #40]	; 0x28
 8001b6c:	f7fe fb88 	bl	8000280 <__aeabi_uldivmod>
 8001b70:	4602      	mov	r2, r0
 8001b72:	460b      	mov	r3, r1
 8001b74:	4613      	mov	r3, r2
 8001b76:	64fb      	str	r3, [r7, #76]	; 0x4c
 8001b78:	e058      	b.n	8001c2c <HAL_RCC_GetSysClockFreq+0x1d0>
      }
      else
      {
        /* HSI used as PLL clock source */
        pllvco = (uint32_t)((((uint64_t) HSI_VALUE * ((uint64_t)((RCC->PLLCFGR & RCC_PLLCFGR_PLLN) >> RCC_PLLCFGR_PLLN_Pos)))) / (uint64_t)pllm);
 8001b7a:	4b38      	ldr	r3, [pc, #224]	; (8001c5c <HAL_RCC_GetSysClockFreq+0x200>)
 8001b7c:	685b      	ldr	r3, [r3, #4]
 8001b7e:	099b      	lsrs	r3, r3, #6
 8001b80:	2200      	movs	r2, #0
 8001b82:	4618      	mov	r0, r3
 8001b84:	4611      	mov	r1, r2
 8001b86:	f3c0 0308 	ubfx	r3, r0, #0, #9
 8001b8a:	623b      	str	r3, [r7, #32]
 8001b8c:	2300      	movs	r3, #0
 8001b8e:	627b      	str	r3, [r7, #36]	; 0x24
 8001b90:	e9d7 8908 	ldrd	r8, r9, [r7, #32]
 8001b94:	4642      	mov	r2, r8
 8001b96:	464b      	mov	r3, r9
 8001b98:	f04f 0000 	mov.w	r0, #0
 8001b9c:	f04f 0100 	mov.w	r1, #0
 8001ba0:	0159      	lsls	r1, r3, #5
 8001ba2:	ea41 61d2 	orr.w	r1, r1, r2, lsr #27
 8001ba6:	0150      	lsls	r0, r2, #5
 8001ba8:	4602      	mov	r2, r0
 8001baa:	460b      	mov	r3, r1
 8001bac:	4641      	mov	r1, r8
 8001bae:	ebb2 0a01 	subs.w	sl, r2, r1
 8001bb2:	4649      	mov	r1, r9
 8001bb4:	eb63 0b01 	sbc.w	fp, r3, r1
 8001bb8:	f04f 0200 	mov.w	r2, #0
 8001bbc:	f04f 0300 	mov.w	r3, #0
 8001bc0:	ea4f 138b 	mov.w	r3, fp, lsl #6
 8001bc4:	ea43 639a 	orr.w	r3, r3, sl, lsr #26
 8001bc8:	ea4f 128a 	mov.w	r2, sl, lsl #6
 8001bcc:	ebb2 040a 	subs.w	r4, r2, sl
 8001bd0:	eb63 050b 	sbc.w	r5, r3, fp
 8001bd4:	f04f 0200 	mov.w	r2, #0
 8001bd8:	f04f 0300 	mov.w	r3, #0
 8001bdc:	00eb      	lsls	r3, r5, #3
 8001bde:	ea43 7354 	orr.w	r3, r3, r4, lsr #29
 8001be2:	00e2      	lsls	r2, r4, #3
 8001be4:	4614      	mov	r4, r2
 8001be6:	461d      	mov	r5, r3
 8001be8:	4643      	mov	r3, r8
 8001bea:	18e3      	adds	r3, r4, r3
 8001bec:	603b      	str	r3, [r7, #0]
 8001bee:	464b      	mov	r3, r9
 8001bf0:	eb45 0303 	adc.w	r3, r5, r3
 8001bf4:	607b      	str	r3, [r7, #4]
 8001bf6:	f04f 0200 	mov.w	r2, #0
 8001bfa:	f04f 0300 	mov.w	r3, #0
 8001bfe:	e9d7 4500 	ldrd	r4, r5, [r7]
 8001c02:	4629      	mov	r1, r5
 8001c04:	028b      	lsls	r3, r1, #10
 8001c06:	4621      	mov	r1, r4
 8001c08:	ea43 5391 	orr.w	r3, r3, r1, lsr #22
 8001c0c:	4621      	mov	r1, r4
 8001c0e:	028a      	lsls	r2, r1, #10
 8001c10:	4610      	mov	r0, r2
 8001c12:	4619      	mov	r1, r3
 8001c14:	6c7b      	ldr	r3, [r7, #68]	; 0x44
 8001c16:	2200      	movs	r2, #0
 8001c18:	61bb      	str	r3, [r7, #24]
 8001c1a:	61fa      	str	r2, [r7, #28]
 8001c1c:	e9d7 2306 	ldrd	r2, r3, [r7, #24]
 8001c20:	f7fe fb2e 	bl	8000280 <__aeabi_uldivmod>
 8001c24:	4602      	mov	r2, r0
 8001c26:	460b      	mov	r3, r1
 8001c28:	4613      	mov	r3, r2
 8001c2a:	64fb      	str	r3, [r7, #76]	; 0x4c
      }
      pllp = ((((RCC->PLLCFGR & RCC_PLLCFGR_PLLP) >> RCC_PLLCFGR_PLLP_Pos) + 1U) * 2U);
 8001c2c:	4b0b      	ldr	r3, [pc, #44]	; (8001c5c <HAL_RCC_GetSysClockFreq+0x200>)
 8001c2e:	685b      	ldr	r3, [r3, #4]
 8001c30:	0c1b      	lsrs	r3, r3, #16
 8001c32:	f003 0303 	and.w	r3, r3, #3
 8001c36:	3301      	adds	r3, #1
 8001c38:	005b      	lsls	r3, r3, #1
 8001c3a:	643b      	str	r3, [r7, #64]	; 0x40

      sysclockfreq = pllvco / pllp;
 8001c3c:	6cfa      	ldr	r2, [r7, #76]	; 0x4c
 8001c3e:	6c3b      	ldr	r3, [r7, #64]	; 0x40
 8001c40:	fbb2 f3f3 	udiv	r3, r2, r3
 8001c44:	64bb      	str	r3, [r7, #72]	; 0x48
      break;
 8001c46:	e002      	b.n	8001c4e <HAL_RCC_GetSysClockFreq+0x1f2>
    }
    default:
    {
      sysclockfreq = HSI_VALUE;
 8001c48:	4b05      	ldr	r3, [pc, #20]	; (8001c60 <HAL_RCC_GetSysClockFreq+0x204>)
 8001c4a:	64bb      	str	r3, [r7, #72]	; 0x48
      break;
 8001c4c:	bf00      	nop
    }
  }
  return sysclockfreq;
 8001c4e:	6cbb      	ldr	r3, [r7, #72]	; 0x48
}
 8001c50:	4618      	mov	r0, r3
 8001c52:	3750      	adds	r7, #80	; 0x50
 8001c54:	46bd      	mov	sp, r7
 8001c56:	e8bd 8fb0 	ldmia.w	sp!, {r4, r5, r7, r8, r9, sl, fp, pc}
 8001c5a:	bf00      	nop
 8001c5c:	40023800 	.word	0x40023800
 8001c60:	00f42400 	.word	0x00f42400
 8001c64:	007a1200 	.word	0x007a1200

08001c68 <HAL_RCC_GetHCLKFreq>:
  * @note   The SystemCoreClock CMSIS variable is used to store System Clock Frequency
  *         and updated within this function
  * @retval HCLK frequency
  */
uint32_t HAL_RCC_GetHCLKFreq(void)
{
 8001c68:	b480      	push	{r7}
 8001c6a:	af00      	add	r7, sp, #0
  return SystemCoreClock;
 8001c6c:	4b03      	ldr	r3, [pc, #12]	; (8001c7c <HAL_RCC_GetHCLKFreq+0x14>)
 8001c6e:	681b      	ldr	r3, [r3, #0]
}
 8001c70:	4618      	mov	r0, r3
 8001c72:	46bd      	mov	sp, r7
 8001c74:	f85d 7b04 	ldr.w	r7, [sp], #4
 8001c78:	4770      	bx	lr
 8001c7a:	bf00      	nop
 8001c7c:	20000000 	.word	0x20000000

08001c80 <HAL_RCC_GetPCLK1Freq>:
  * @note   Each time PCLK1 changes, this function must be called to update the
  *         right PCLK1 value. Otherwise, any configuration based on this function will be incorrect.
  * @retval PCLK1 frequency
  */
uint32_t HAL_RCC_GetPCLK1Freq(void)
{
 8001c80:	b580      	push	{r7, lr}
 8001c82:	af00      	add	r7, sp, #0
  /* Get HCLK source and Compute PCLK1 frequency ---------------------------*/
  return (HAL_RCC_GetHCLKFreq() >> APBPrescTable[(RCC->CFGR & RCC_CFGR_PPRE1) >> RCC_CFGR_PPRE1_Pos]);
 8001c84:	f7ff fff0 	bl	8001c68 <HAL_RCC_GetHCLKFreq>
 8001c88:	4602      	mov	r2, r0
 8001c8a:	4b05      	ldr	r3, [pc, #20]	; (8001ca0 <HAL_RCC_GetPCLK1Freq+0x20>)
 8001c8c:	689b      	ldr	r3, [r3, #8]
 8001c8e:	0a9b      	lsrs	r3, r3, #10
 8001c90:	f003 0307 	and.w	r3, r3, #7
 8001c94:	4903      	ldr	r1, [pc, #12]	; (8001ca4 <HAL_RCC_GetPCLK1Freq+0x24>)
 8001c96:	5ccb      	ldrb	r3, [r1, r3]
 8001c98:	fa22 f303 	lsr.w	r3, r2, r3
}
 8001c9c:	4618      	mov	r0, r3
 8001c9e:	bd80      	pop	{r7, pc}
 8001ca0:	40023800 	.word	0x40023800
 8001ca4:	08004740 	.word	0x08004740

08001ca8 <HAL_RCC_GetPCLK2Freq>:
  * @note   Each time PCLK2 changes, this function must be called to update the
  *         right PCLK2 value. Otherwise, any configuration based on this function will be incorrect.
  * @retval PCLK2 frequency
  */
uint32_t HAL_RCC_GetPCLK2Freq(void)
{
 8001ca8:	b580      	push	{r7, lr}
 8001caa:	af00      	add	r7, sp, #0
  /* Get HCLK source and Compute PCLK2 frequency ---------------------------*/
  return (HAL_RCC_GetHCLKFreq() >> APBPrescTable[(RCC->CFGR & RCC_CFGR_PPRE2) >> RCC_CFGR_PPRE2_Pos]);
 8001cac:	f7ff ffdc 	bl	8001c68 <HAL_RCC_GetHCLKFreq>
 8001cb0:	4602      	mov	r2, r0
 8001cb2:	4b05      	ldr	r3, [pc, #20]	; (8001cc8 <HAL_RCC_GetPCLK2Freq+0x20>)
 8001cb4:	689b      	ldr	r3, [r3, #8]
 8001cb6:	0b5b      	lsrs	r3, r3, #13
 8001cb8:	f003 0307 	and.w	r3, r3, #7
 8001cbc:	4903      	ldr	r1, [pc, #12]	; (8001ccc <HAL_RCC_GetPCLK2Freq+0x24>)
 8001cbe:	5ccb      	ldrb	r3, [r1, r3]
 8001cc0:	fa22 f303 	lsr.w	r3, r2, r3
}
 8001cc4:	4618      	mov	r0, r3
 8001cc6:	bd80      	pop	{r7, pc}
 8001cc8:	40023800 	.word	0x40023800
 8001ccc:	08004740 	.word	0x08004740

08001cd0 <HAL_TIM_Base_Init>:
  *         Ex: call @ref HAL_TIM_Base_DeInit() before HAL_TIM_Base_Init()
  * @param  htim TIM Base handle
  * @retval HAL status
  */
HAL_StatusTypeDef HAL_TIM_Base_Init(TIM_HandleTypeDef *htim)
{
 8001cd0:	b580      	push	{r7, lr}
 8001cd2:	b082      	sub	sp, #8
 8001cd4:	af00      	add	r7, sp, #0
 8001cd6:	6078      	str	r0, [r7, #4]
  /* Check the TIM handle allocation */
  if (htim == NULL)
 8001cd8:	687b      	ldr	r3, [r7, #4]
 8001cda:	2b00      	cmp	r3, #0
 8001cdc:	d101      	bne.n	8001ce2 <HAL_TIM_Base_Init+0x12>
  {
    return HAL_ERROR;
 8001cde:	2301      	movs	r3, #1
 8001ce0:	e041      	b.n	8001d66 <HAL_TIM_Base_Init+0x96>
  assert_param(IS_TIM_COUNTER_MODE(htim->Init.CounterMode));
  assert_param(IS_TIM_CLOCKDIVISION_DIV(htim->Init.ClockDivision));
  assert_param(IS_TIM_PERIOD(htim, htim->Init.Period));
  assert_param(IS_TIM_AUTORELOAD_PRELOAD(htim->Init.AutoReloadPreload));

  if (htim->State == HAL_TIM_STATE_RESET)
 8001ce2:	687b      	ldr	r3, [r7, #4]
 8001ce4:	f893 303d 	ldrb.w	r3, [r3, #61]	; 0x3d
 8001ce8:	b2db      	uxtb	r3, r3
 8001cea:	2b00      	cmp	r3, #0
 8001cec:	d106      	bne.n	8001cfc <HAL_TIM_Base_Init+0x2c>
  {
    /* Allocate lock resource and initialize it */
    htim->Lock = HAL_UNLOCKED;
 8001cee:	687b      	ldr	r3, [r7, #4]
 8001cf0:	2200      	movs	r2, #0
 8001cf2:	f883 203c 	strb.w	r2, [r3, #60]	; 0x3c
    }
    /* Init the low level hardware : GPIO, CLOCK, NVIC */
    htim->Base_MspInitCallback(htim);
#else
    /* Init the low level hardware : GPIO, CLOCK, NVIC */
    HAL_TIM_Base_MspInit(htim);
 8001cf6:	6878      	ldr	r0, [r7, #4]
 8001cf8:	f7fe fe90 	bl	8000a1c <HAL_TIM_Base_MspInit>
#endif /* USE_HAL_TIM_REGISTER_CALLBACKS */
  }

  /* Set the TIM state */
  htim->State = HAL_TIM_STATE_BUSY;
 8001cfc:	687b      	ldr	r3, [r7, #4]
 8001cfe:	2202      	movs	r2, #2
 8001d00:	f883 203d 	strb.w	r2, [r3, #61]	; 0x3d

  /* Set the Time Base configuration */
  TIM_Base_SetConfig(htim->Instance, &htim->Init);
 8001d04:	687b      	ldr	r3, [r7, #4]
 8001d06:	681a      	ldr	r2, [r3, #0]
 8001d08:	687b      	ldr	r3, [r7, #4]
 8001d0a:	3304      	adds	r3, #4
 8001d0c:	4619      	mov	r1, r3
 8001d0e:	4610      	mov	r0, r2
 8001d10:	f000 fac0 	bl	8002294 <TIM_Base_SetConfig>

  /* Initialize the DMA burst operation state */
  htim->DMABurstState = HAL_DMA_BURST_STATE_READY;
 8001d14:	687b      	ldr	r3, [r7, #4]
 8001d16:	2201      	movs	r2, #1
 8001d18:	f883 2046 	strb.w	r2, [r3, #70]	; 0x46

  /* Initialize the TIM channels state */
  TIM_CHANNEL_STATE_SET_ALL(htim, HAL_TIM_CHANNEL_STATE_READY);
 8001d1c:	687b      	ldr	r3, [r7, #4]
 8001d1e:	2201      	movs	r2, #1
 8001d20:	f883 203e 	strb.w	r2, [r3, #62]	; 0x3e
 8001d24:	687b      	ldr	r3, [r7, #4]
 8001d26:	2201      	movs	r2, #1
 8001d28:	f883 203f 	strb.w	r2, [r3, #63]	; 0x3f
 8001d2c:	687b      	ldr	r3, [r7, #4]
 8001d2e:	2201      	movs	r2, #1
 8001d30:	f883 2040 	strb.w	r2, [r3, #64]	; 0x40
 8001d34:	687b      	ldr	r3, [r7, #4]
 8001d36:	2201      	movs	r2, #1
 8001d38:	f883 2041 	strb.w	r2, [r3, #65]	; 0x41
  TIM_CHANNEL_N_STATE_SET_ALL(htim, HAL_TIM_CHANNEL_STATE_READY);
 8001d3c:	687b      	ldr	r3, [r7, #4]
 8001d3e:	2201      	movs	r2, #1
 8001d40:	f883 2042 	strb.w	r2, [r3, #66]	; 0x42
 8001d44:	687b      	ldr	r3, [r7, #4]
 8001d46:	2201      	movs	r2, #1
 8001d48:	f883 2043 	strb.w	r2, [r3, #67]	; 0x43
 8001d4c:	687b      	ldr	r3, [r7, #4]
 8001d4e:	2201      	movs	r2, #1
 8001d50:	f883 2044 	strb.w	r2, [r3, #68]	; 0x44
 8001d54:	687b      	ldr	r3, [r7, #4]
 8001d56:	2201      	movs	r2, #1
 8001d58:	f883 2045 	strb.w	r2, [r3, #69]	; 0x45

  /* Initialize the TIM state*/
  htim->State = HAL_TIM_STATE_READY;
 8001d5c:	687b      	ldr	r3, [r7, #4]
 8001d5e:	2201      	movs	r2, #1
 8001d60:	f883 203d 	strb.w	r2, [r3, #61]	; 0x3d

  return HAL_OK;
 8001d64:	2300      	movs	r3, #0
}
 8001d66:	4618      	mov	r0, r3
 8001d68:	3708      	adds	r7, #8
 8001d6a:	46bd      	mov	sp, r7
 8001d6c:	bd80      	pop	{r7, pc}

08001d6e <HAL_TIM_PWM_Init>:
  *         Ex: call @ref HAL_TIM_PWM_DeInit() before HAL_TIM_PWM_Init()
  * @param  htim TIM PWM handle
  * @retval HAL status
  */
HAL_StatusTypeDef HAL_TIM_PWM_Init(TIM_HandleTypeDef *htim)
{
 8001d6e:	b580      	push	{r7, lr}
 8001d70:	b082      	sub	sp, #8
 8001d72:	af00      	add	r7, sp, #0
 8001d74:	6078      	str	r0, [r7, #4]
  /* Check the TIM handle allocation */
  if (htim == NULL)
 8001d76:	687b      	ldr	r3, [r7, #4]
 8001d78:	2b00      	cmp	r3, #0
 8001d7a:	d101      	bne.n	8001d80 <HAL_TIM_PWM_Init+0x12>
  {
    return HAL_ERROR;
 8001d7c:	2301      	movs	r3, #1
 8001d7e:	e041      	b.n	8001e04 <HAL_TIM_PWM_Init+0x96>
  assert_param(IS_TIM_COUNTER_MODE(htim->Init.CounterMode));
  assert_param(IS_TIM_CLOCKDIVISION_DIV(htim->Init.ClockDivision));
  assert_param(IS_TIM_PERIOD(htim, htim->Init.Period));
  assert_param(IS_TIM_AUTORELOAD_PRELOAD(htim->Init.AutoReloadPreload));

  if (htim->State == HAL_TIM_STATE_RESET)
 8001d80:	687b      	ldr	r3, [r7, #4]
 8001d82:	f893 303d 	ldrb.w	r3, [r3, #61]	; 0x3d
 8001d86:	b2db      	uxtb	r3, r3
 8001d88:	2b00      	cmp	r3, #0
 8001d8a:	d106      	bne.n	8001d9a <HAL_TIM_PWM_Init+0x2c>
  {
    /* Allocate lock resource and initialize it */
    htim->Lock = HAL_UNLOCKED;
 8001d8c:	687b      	ldr	r3, [r7, #4]
 8001d8e:	2200      	movs	r2, #0
 8001d90:	f883 203c 	strb.w	r2, [r3, #60]	; 0x3c
    }
    /* Init the low level hardware : GPIO, CLOCK, NVIC */
    htim->PWM_MspInitCallback(htim);
#else
    /* Init the low level hardware : GPIO, CLOCK, NVIC and DMA */
    HAL_TIM_PWM_MspInit(htim);
 8001d94:	6878      	ldr	r0, [r7, #4]
 8001d96:	f000 f839 	bl	8001e0c <HAL_TIM_PWM_MspInit>
#endif /* USE_HAL_TIM_REGISTER_CALLBACKS */
  }

  /* Set the TIM state */
  htim->State = HAL_TIM_STATE_BUSY;
 8001d9a:	687b      	ldr	r3, [r7, #4]
 8001d9c:	2202      	movs	r2, #2
 8001d9e:	f883 203d 	strb.w	r2, [r3, #61]	; 0x3d

  /* Init the base time for the PWM */
  TIM_Base_SetConfig(htim->Instance, &htim->Init);
 8001da2:	687b      	ldr	r3, [r7, #4]
 8001da4:	681a      	ldr	r2, [r3, #0]
 8001da6:	687b      	ldr	r3, [r7, #4]
 8001da8:	3304      	adds	r3, #4
 8001daa:	4619      	mov	r1, r3
 8001dac:	4610      	mov	r0, r2
 8001dae:	f000 fa71 	bl	8002294 <TIM_Base_SetConfig>

  /* Initialize the DMA burst operation state */
  htim->DMABurstState = HAL_DMA_BURST_STATE_READY;
 8001db2:	687b      	ldr	r3, [r7, #4]
 8001db4:	2201      	movs	r2, #1
 8001db6:	f883 2046 	strb.w	r2, [r3, #70]	; 0x46

  /* Initialize the TIM channels state */
  TIM_CHANNEL_STATE_SET_ALL(htim, HAL_TIM_CHANNEL_STATE_READY);
 8001dba:	687b      	ldr	r3, [r7, #4]
 8001dbc:	2201      	movs	r2, #1
 8001dbe:	f883 203e 	strb.w	r2, [r3, #62]	; 0x3e
 8001dc2:	687b      	ldr	r3, [r7, #4]
 8001dc4:	2201      	movs	r2, #1
 8001dc6:	f883 203f 	strb.w	r2, [r3, #63]	; 0x3f
 8001dca:	687b      	ldr	r3, [r7, #4]
 8001dcc:	2201      	movs	r2, #1
 8001dce:	f883 2040 	strb.w	r2, [r3, #64]	; 0x40
 8001dd2:	687b      	ldr	r3, [r7, #4]
 8001dd4:	2201      	movs	r2, #1
 8001dd6:	f883 2041 	strb.w	r2, [r3, #65]	; 0x41
  TIM_CHANNEL_N_STATE_SET_ALL(htim, HAL_TIM_CHANNEL_STATE_READY);
 8001dda:	687b      	ldr	r3, [r7, #4]
 8001ddc:	2201      	movs	r2, #1
 8001dde:	f883 2042 	strb.w	r2, [r3, #66]	; 0x42
 8001de2:	687b      	ldr	r3, [r7, #4]
 8001de4:	2201      	movs	r2, #1
 8001de6:	f883 2043 	strb.w	r2, [r3, #67]	; 0x43
 8001dea:	687b      	ldr	r3, [r7, #4]
 8001dec:	2201      	movs	r2, #1
 8001dee:	f883 2044 	strb.w	r2, [r3, #68]	; 0x44
 8001df2:	687b      	ldr	r3, [r7, #4]
 8001df4:	2201      	movs	r2, #1
 8001df6:	f883 2045 	strb.w	r2, [r3, #69]	; 0x45

  /* Initialize the TIM state*/
  htim->State = HAL_TIM_STATE_READY;
 8001dfa:	687b      	ldr	r3, [r7, #4]
 8001dfc:	2201      	movs	r2, #1
 8001dfe:	f883 203d 	strb.w	r2, [r3, #61]	; 0x3d

  return HAL_OK;
 8001e02:	2300      	movs	r3, #0
}
 8001e04:	4618      	mov	r0, r3
 8001e06:	3708      	adds	r7, #8
 8001e08:	46bd      	mov	sp, r7
 8001e0a:	bd80      	pop	{r7, pc}

08001e0c <HAL_TIM_PWM_MspInit>:
  * @brief  Initializes the TIM PWM MSP.
  * @param  htim TIM PWM handle
  * @retval None
  */
__weak void HAL_TIM_PWM_MspInit(TIM_HandleTypeDef *htim)
{
 8001e0c:	b480      	push	{r7}
 8001e0e:	b083      	sub	sp, #12
 8001e10:	af00      	add	r7, sp, #0
 8001e12:	6078      	str	r0, [r7, #4]
  UNUSED(htim);

  /* NOTE : This function should not be modified, when the callback is needed,
            the HAL_TIM_PWM_MspInit could be implemented in the user file
   */
}
 8001e14:	bf00      	nop
 8001e16:	370c      	adds	r7, #12
 8001e18:	46bd      	mov	sp, r7
 8001e1a:	f85d 7b04 	ldr.w	r7, [sp], #4
 8001e1e:	4770      	bx	lr

08001e20 <HAL_TIM_PWM_Start>:
  *            @arg TIM_CHANNEL_3: TIM Channel 3 selected
  *            @arg TIM_CHANNEL_4: TIM Channel 4 selected
  * @retval HAL status
  */
HAL_StatusTypeDef HAL_TIM_PWM_Start(TIM_HandleTypeDef *htim, uint32_t Channel)
{
 8001e20:	b580      	push	{r7, lr}
 8001e22:	b084      	sub	sp, #16
 8001e24:	af00      	add	r7, sp, #0
 8001e26:	6078      	str	r0, [r7, #4]
 8001e28:	6039      	str	r1, [r7, #0]

  /* Check the parameters */
  assert_param(IS_TIM_CCX_INSTANCE(htim->Instance, Channel));

  /* Check the TIM channel state */
  if (TIM_CHANNEL_STATE_GET(htim, Channel) != HAL_TIM_CHANNEL_STATE_READY)
 8001e2a:	683b      	ldr	r3, [r7, #0]
 8001e2c:	2b00      	cmp	r3, #0
 8001e2e:	d109      	bne.n	8001e44 <HAL_TIM_PWM_Start+0x24>
 8001e30:	687b      	ldr	r3, [r7, #4]
 8001e32:	f893 303e 	ldrb.w	r3, [r3, #62]	; 0x3e
 8001e36:	b2db      	uxtb	r3, r3
 8001e38:	2b01      	cmp	r3, #1
 8001e3a:	bf14      	ite	ne
 8001e3c:	2301      	movne	r3, #1
 8001e3e:	2300      	moveq	r3, #0
 8001e40:	b2db      	uxtb	r3, r3
 8001e42:	e022      	b.n	8001e8a <HAL_TIM_PWM_Start+0x6a>
 8001e44:	683b      	ldr	r3, [r7, #0]
 8001e46:	2b04      	cmp	r3, #4
 8001e48:	d109      	bne.n	8001e5e <HAL_TIM_PWM_Start+0x3e>
 8001e4a:	687b      	ldr	r3, [r7, #4]
 8001e4c:	f893 303f 	ldrb.w	r3, [r3, #63]	; 0x3f
 8001e50:	b2db      	uxtb	r3, r3
 8001e52:	2b01      	cmp	r3, #1
 8001e54:	bf14      	ite	ne
 8001e56:	2301      	movne	r3, #1
 8001e58:	2300      	moveq	r3, #0
 8001e5a:	b2db      	uxtb	r3, r3
 8001e5c:	e015      	b.n	8001e8a <HAL_TIM_PWM_Start+0x6a>
 8001e5e:	683b      	ldr	r3, [r7, #0]
 8001e60:	2b08      	cmp	r3, #8
 8001e62:	d109      	bne.n	8001e78 <HAL_TIM_PWM_Start+0x58>
 8001e64:	687b      	ldr	r3, [r7, #4]
 8001e66:	f893 3040 	ldrb.w	r3, [r3, #64]	; 0x40
 8001e6a:	b2db      	uxtb	r3, r3
 8001e6c:	2b01      	cmp	r3, #1
 8001e6e:	bf14      	ite	ne
 8001e70:	2301      	movne	r3, #1
 8001e72:	2300      	moveq	r3, #0
 8001e74:	b2db      	uxtb	r3, r3
 8001e76:	e008      	b.n	8001e8a <HAL_TIM_PWM_Start+0x6a>
 8001e78:	687b      	ldr	r3, [r7, #4]
 8001e7a:	f893 3041 	ldrb.w	r3, [r3, #65]	; 0x41
 8001e7e:	b2db      	uxtb	r3, r3
 8001e80:	2b01      	cmp	r3, #1
 8001e82:	bf14      	ite	ne
 8001e84:	2301      	movne	r3, #1
 8001e86:	2300      	moveq	r3, #0
 8001e88:	b2db      	uxtb	r3, r3
 8001e8a:	2b00      	cmp	r3, #0
 8001e8c:	d001      	beq.n	8001e92 <HAL_TIM_PWM_Start+0x72>
  {
    return HAL_ERROR;
 8001e8e:	2301      	movs	r3, #1
 8001e90:	e068      	b.n	8001f64 <HAL_TIM_PWM_Start+0x144>
  }

  /* Set the TIM channel state */
  TIM_CHANNEL_STATE_SET(htim, Channel, HAL_TIM_CHANNEL_STATE_BUSY);
 8001e92:	683b      	ldr	r3, [r7, #0]
 8001e94:	2b00      	cmp	r3, #0
 8001e96:	d104      	bne.n	8001ea2 <HAL_TIM_PWM_Start+0x82>
 8001e98:	687b      	ldr	r3, [r7, #4]
 8001e9a:	2202      	movs	r2, #2
 8001e9c:	f883 203e 	strb.w	r2, [r3, #62]	; 0x3e
 8001ea0:	e013      	b.n	8001eca <HAL_TIM_PWM_Start+0xaa>
 8001ea2:	683b      	ldr	r3, [r7, #0]
 8001ea4:	2b04      	cmp	r3, #4
 8001ea6:	d104      	bne.n	8001eb2 <HAL_TIM_PWM_Start+0x92>
 8001ea8:	687b      	ldr	r3, [r7, #4]
 8001eaa:	2202      	movs	r2, #2
 8001eac:	f883 203f 	strb.w	r2, [r3, #63]	; 0x3f
 8001eb0:	e00b      	b.n	8001eca <HAL_TIM_PWM_Start+0xaa>
 8001eb2:	683b      	ldr	r3, [r7, #0]
 8001eb4:	2b08      	cmp	r3, #8
 8001eb6:	d104      	bne.n	8001ec2 <HAL_TIM_PWM_Start+0xa2>
 8001eb8:	687b      	ldr	r3, [r7, #4]
 8001eba:	2202      	movs	r2, #2
 8001ebc:	f883 2040 	strb.w	r2, [r3, #64]	; 0x40
 8001ec0:	e003      	b.n	8001eca <HAL_TIM_PWM_Start+0xaa>
 8001ec2:	687b      	ldr	r3, [r7, #4]
 8001ec4:	2202      	movs	r2, #2
 8001ec6:	f883 2041 	strb.w	r2, [r3, #65]	; 0x41

  /* Enable the Capture compare channel */
  TIM_CCxChannelCmd(htim->Instance, Channel, TIM_CCx_ENABLE);
 8001eca:	687b      	ldr	r3, [r7, #4]
 8001ecc:	681b      	ldr	r3, [r3, #0]
 8001ece:	2201      	movs	r2, #1
 8001ed0:	6839      	ldr	r1, [r7, #0]
 8001ed2:	4618      	mov	r0, r3
 8001ed4:	f000 fc90 	bl	80027f8 <TIM_CCxChannelCmd>

  if (IS_TIM_BREAK_INSTANCE(htim->Instance) != RESET)
 8001ed8:	687b      	ldr	r3, [r7, #4]
 8001eda:	681b      	ldr	r3, [r3, #0]
 8001edc:	4a23      	ldr	r2, [pc, #140]	; (8001f6c <HAL_TIM_PWM_Start+0x14c>)
 8001ede:	4293      	cmp	r3, r2
 8001ee0:	d107      	bne.n	8001ef2 <HAL_TIM_PWM_Start+0xd2>
  {
    /* Enable the main output */
    __HAL_TIM_MOE_ENABLE(htim);
 8001ee2:	687b      	ldr	r3, [r7, #4]
 8001ee4:	681b      	ldr	r3, [r3, #0]
 8001ee6:	6c5a      	ldr	r2, [r3, #68]	; 0x44
 8001ee8:	687b      	ldr	r3, [r7, #4]
 8001eea:	681b      	ldr	r3, [r3, #0]
 8001eec:	f442 4200 	orr.w	r2, r2, #32768	; 0x8000
 8001ef0:	645a      	str	r2, [r3, #68]	; 0x44
  }

  /* Enable the Peripheral, except in trigger mode where enable is automatically done with trigger */
  if (IS_TIM_SLAVE_INSTANCE(htim->Instance))
 8001ef2:	687b      	ldr	r3, [r7, #4]
 8001ef4:	681b      	ldr	r3, [r3, #0]
 8001ef6:	4a1d      	ldr	r2, [pc, #116]	; (8001f6c <HAL_TIM_PWM_Start+0x14c>)
 8001ef8:	4293      	cmp	r3, r2
 8001efa:	d018      	beq.n	8001f2e <HAL_TIM_PWM_Start+0x10e>
 8001efc:	687b      	ldr	r3, [r7, #4]
 8001efe:	681b      	ldr	r3, [r3, #0]
 8001f00:	f1b3 4f80 	cmp.w	r3, #1073741824	; 0x40000000
 8001f04:	d013      	beq.n	8001f2e <HAL_TIM_PWM_Start+0x10e>
 8001f06:	687b      	ldr	r3, [r7, #4]
 8001f08:	681b      	ldr	r3, [r3, #0]
 8001f0a:	4a19      	ldr	r2, [pc, #100]	; (8001f70 <HAL_TIM_PWM_Start+0x150>)
 8001f0c:	4293      	cmp	r3, r2
 8001f0e:	d00e      	beq.n	8001f2e <HAL_TIM_PWM_Start+0x10e>
 8001f10:	687b      	ldr	r3, [r7, #4]
 8001f12:	681b      	ldr	r3, [r3, #0]
 8001f14:	4a17      	ldr	r2, [pc, #92]	; (8001f74 <HAL_TIM_PWM_Start+0x154>)
 8001f16:	4293      	cmp	r3, r2
 8001f18:	d009      	beq.n	8001f2e <HAL_TIM_PWM_Start+0x10e>
 8001f1a:	687b      	ldr	r3, [r7, #4]
 8001f1c:	681b      	ldr	r3, [r3, #0]
 8001f1e:	4a16      	ldr	r2, [pc, #88]	; (8001f78 <HAL_TIM_PWM_Start+0x158>)
 8001f20:	4293      	cmp	r3, r2
 8001f22:	d004      	beq.n	8001f2e <HAL_TIM_PWM_Start+0x10e>
 8001f24:	687b      	ldr	r3, [r7, #4]
 8001f26:	681b      	ldr	r3, [r3, #0]
 8001f28:	4a14      	ldr	r2, [pc, #80]	; (8001f7c <HAL_TIM_PWM_Start+0x15c>)
 8001f2a:	4293      	cmp	r3, r2
 8001f2c:	d111      	bne.n	8001f52 <HAL_TIM_PWM_Start+0x132>
  {
    tmpsmcr = htim->Instance->SMCR & TIM_SMCR_SMS;
 8001f2e:	687b      	ldr	r3, [r7, #4]
 8001f30:	681b      	ldr	r3, [r3, #0]
 8001f32:	689b      	ldr	r3, [r3, #8]
 8001f34:	f003 0307 	and.w	r3, r3, #7
 8001f38:	60fb      	str	r3, [r7, #12]
    if (!IS_TIM_SLAVEMODE_TRIGGER_ENABLED(tmpsmcr))
 8001f3a:	68fb      	ldr	r3, [r7, #12]
 8001f3c:	2b06      	cmp	r3, #6
 8001f3e:	d010      	beq.n	8001f62 <HAL_TIM_PWM_Start+0x142>
    {
      __HAL_TIM_ENABLE(htim);
 8001f40:	687b      	ldr	r3, [r7, #4]
 8001f42:	681b      	ldr	r3, [r3, #0]
 8001f44:	681a      	ldr	r2, [r3, #0]
 8001f46:	687b      	ldr	r3, [r7, #4]
 8001f48:	681b      	ldr	r3, [r3, #0]
 8001f4a:	f042 0201 	orr.w	r2, r2, #1
 8001f4e:	601a      	str	r2, [r3, #0]
    if (!IS_TIM_SLAVEMODE_TRIGGER_ENABLED(tmpsmcr))
 8001f50:	e007      	b.n	8001f62 <HAL_TIM_PWM_Start+0x142>
    }
  }
  else
  {
    __HAL_TIM_ENABLE(htim);
 8001f52:	687b      	ldr	r3, [r7, #4]
 8001f54:	681b      	ldr	r3, [r3, #0]
 8001f56:	681a      	ldr	r2, [r3, #0]
 8001f58:	687b      	ldr	r3, [r7, #4]
 8001f5a:	681b      	ldr	r3, [r3, #0]
 8001f5c:	f042 0201 	orr.w	r2, r2, #1
 8001f60:	601a      	str	r2, [r3, #0]
  }

  /* Return function status */
  return HAL_OK;
 8001f62:	2300      	movs	r3, #0
}
 8001f64:	4618      	mov	r0, r3
 8001f66:	3710      	adds	r7, #16
 8001f68:	46bd      	mov	sp, r7
 8001f6a:	bd80      	pop	{r7, pc}
 8001f6c:	40010000 	.word	0x40010000
 8001f70:	40000400 	.word	0x40000400
 8001f74:	40000800 	.word	0x40000800
 8001f78:	40000c00 	.word	0x40000c00
 8001f7c:	40014000 	.word	0x40014000

08001f80 <HAL_TIM_PWM_ConfigChannel>:
  * @retval HAL status
  */
HAL_StatusTypeDef HAL_TIM_PWM_ConfigChannel(TIM_HandleTypeDef *htim,
                                            const TIM_OC_InitTypeDef *sConfig,
                                            uint32_t Channel)
{
 8001f80:	b580      	push	{r7, lr}
 8001f82:	b086      	sub	sp, #24
 8001f84:	af00      	add	r7, sp, #0
 8001f86:	60f8      	str	r0, [r7, #12]
 8001f88:	60b9      	str	r1, [r7, #8]
 8001f8a:	607a      	str	r2, [r7, #4]
  HAL_StatusTypeDef status = HAL_OK;
 8001f8c:	2300      	movs	r3, #0
 8001f8e:	75fb      	strb	r3, [r7, #23]
  assert_param(IS_TIM_PWM_MODE(sConfig->OCMode));
  assert_param(IS_TIM_OC_POLARITY(sConfig->OCPolarity));
  assert_param(IS_TIM_FAST_STATE(sConfig->OCFastMode));

  /* Process Locked */
  __HAL_LOCK(htim);
 8001f90:	68fb      	ldr	r3, [r7, #12]
 8001f92:	f893 303c 	ldrb.w	r3, [r3, #60]	; 0x3c
 8001f96:	2b01      	cmp	r3, #1
 8001f98:	d101      	bne.n	8001f9e <HAL_TIM_PWM_ConfigChannel+0x1e>
 8001f9a:	2302      	movs	r3, #2
 8001f9c:	e0ae      	b.n	80020fc <HAL_TIM_PWM_ConfigChannel+0x17c>
 8001f9e:	68fb      	ldr	r3, [r7, #12]
 8001fa0:	2201      	movs	r2, #1
 8001fa2:	f883 203c 	strb.w	r2, [r3, #60]	; 0x3c

  switch (Channel)
 8001fa6:	687b      	ldr	r3, [r7, #4]
 8001fa8:	2b0c      	cmp	r3, #12
 8001faa:	f200 809f 	bhi.w	80020ec <HAL_TIM_PWM_ConfigChannel+0x16c>
 8001fae:	a201      	add	r2, pc, #4	; (adr r2, 8001fb4 <HAL_TIM_PWM_ConfigChannel+0x34>)
 8001fb0:	f852 f023 	ldr.w	pc, [r2, r3, lsl #2]
 8001fb4:	08001fe9 	.word	0x08001fe9
 8001fb8:	080020ed 	.word	0x080020ed
 8001fbc:	080020ed 	.word	0x080020ed
 8001fc0:	080020ed 	.word	0x080020ed
 8001fc4:	08002029 	.word	0x08002029
 8001fc8:	080020ed 	.word	0x080020ed
 8001fcc:	080020ed 	.word	0x080020ed
 8001fd0:	080020ed 	.word	0x080020ed
 8001fd4:	0800206b 	.word	0x0800206b
 8001fd8:	080020ed 	.word	0x080020ed
 8001fdc:	080020ed 	.word	0x080020ed
 8001fe0:	080020ed 	.word	0x080020ed
 8001fe4:	080020ab 	.word	0x080020ab
    {
      /* Check the parameters */
      assert_param(IS_TIM_CC1_INSTANCE(htim->Instance));

      /* Configure the Channel 1 in PWM mode */
      TIM_OC1_SetConfig(htim->Instance, sConfig);
 8001fe8:	68fb      	ldr	r3, [r7, #12]
 8001fea:	681b      	ldr	r3, [r3, #0]
 8001fec:	68b9      	ldr	r1, [r7, #8]
 8001fee:	4618      	mov	r0, r3
 8001ff0:	f000 f9dc 	bl	80023ac <TIM_OC1_SetConfig>

      /* Set the Preload enable bit for channel1 */
      htim->Instance->CCMR1 |= TIM_CCMR1_OC1PE;
 8001ff4:	68fb      	ldr	r3, [r7, #12]
 8001ff6:	681b      	ldr	r3, [r3, #0]
 8001ff8:	699a      	ldr	r2, [r3, #24]
 8001ffa:	68fb      	ldr	r3, [r7, #12]
 8001ffc:	681b      	ldr	r3, [r3, #0]
 8001ffe:	f042 0208 	orr.w	r2, r2, #8
 8002002:	619a      	str	r2, [r3, #24]

      /* Configure the Output Fast mode */
      htim->Instance->CCMR1 &= ~TIM_CCMR1_OC1FE;
 8002004:	68fb      	ldr	r3, [r7, #12]
 8002006:	681b      	ldr	r3, [r3, #0]
 8002008:	699a      	ldr	r2, [r3, #24]
 800200a:	68fb      	ldr	r3, [r7, #12]
 800200c:	681b      	ldr	r3, [r3, #0]
 800200e:	f022 0204 	bic.w	r2, r2, #4
 8002012:	619a      	str	r2, [r3, #24]
      htim->Instance->CCMR1 |= sConfig->OCFastMode;
 8002014:	68fb      	ldr	r3, [r7, #12]
 8002016:	681b      	ldr	r3, [r3, #0]
 8002018:	6999      	ldr	r1, [r3, #24]
 800201a:	68bb      	ldr	r3, [r7, #8]
 800201c:	691a      	ldr	r2, [r3, #16]
 800201e:	68fb      	ldr	r3, [r7, #12]
 8002020:	681b      	ldr	r3, [r3, #0]
 8002022:	430a      	orrs	r2, r1
 8002024:	619a      	str	r2, [r3, #24]
      break;
 8002026:	e064      	b.n	80020f2 <HAL_TIM_PWM_ConfigChannel+0x172>
    {
      /* Check the parameters */
      assert_param(IS_TIM_CC2_INSTANCE(htim->Instance));

      /* Configure the Channel 2 in PWM mode */
      TIM_OC2_SetConfig(htim->Instance, sConfig);
 8002028:	68fb      	ldr	r3, [r7, #12]
 800202a:	681b      	ldr	r3, [r3, #0]
 800202c:	68b9      	ldr	r1, [r7, #8]
 800202e:	4618      	mov	r0, r3
 8002030:	f000 fa22 	bl	8002478 <TIM_OC2_SetConfig>

      /* Set the Preload enable bit for channel2 */
      htim->Instance->CCMR1 |= TIM_CCMR1_OC2PE;
 8002034:	68fb      	ldr	r3, [r7, #12]
 8002036:	681b      	ldr	r3, [r3, #0]
 8002038:	699a      	ldr	r2, [r3, #24]
 800203a:	68fb      	ldr	r3, [r7, #12]
 800203c:	681b      	ldr	r3, [r3, #0]
 800203e:	f442 6200 	orr.w	r2, r2, #2048	; 0x800
 8002042:	619a      	str	r2, [r3, #24]

      /* Configure the Output Fast mode */
      htim->Instance->CCMR1 &= ~TIM_CCMR1_OC2FE;
 8002044:	68fb      	ldr	r3, [r7, #12]
 8002046:	681b      	ldr	r3, [r3, #0]
 8002048:	699a      	ldr	r2, [r3, #24]
 800204a:	68fb      	ldr	r3, [r7, #12]
 800204c:	681b      	ldr	r3, [r3, #0]
 800204e:	f422 6280 	bic.w	r2, r2, #1024	; 0x400
 8002052:	619a      	str	r2, [r3, #24]
      htim->Instance->CCMR1 |= sConfig->OCFastMode << 8U;
 8002054:	68fb      	ldr	r3, [r7, #12]
 8002056:	681b      	ldr	r3, [r3, #0]
 8002058:	6999      	ldr	r1, [r3, #24]
 800205a:	68bb      	ldr	r3, [r7, #8]
 800205c:	691b      	ldr	r3, [r3, #16]
 800205e:	021a      	lsls	r2, r3, #8
 8002060:	68fb      	ldr	r3, [r7, #12]
 8002062:	681b      	ldr	r3, [r3, #0]
 8002064:	430a      	orrs	r2, r1
 8002066:	619a      	str	r2, [r3, #24]
      break;
 8002068:	e043      	b.n	80020f2 <HAL_TIM_PWM_ConfigChannel+0x172>
    {
      /* Check the parameters */
      assert_param(IS_TIM_CC3_INSTANCE(htim->Instance));

      /* Configure the Channel 3 in PWM mode */
      TIM_OC3_SetConfig(htim->Instance, sConfig);
 800206a:	68fb      	ldr	r3, [r7, #12]
 800206c:	681b      	ldr	r3, [r3, #0]
 800206e:	68b9      	ldr	r1, [r7, #8]
 8002070:	4618      	mov	r0, r3
 8002072:	f000 fa6d 	bl	8002550 <TIM_OC3_SetConfig>

      /* Set the Preload enable bit for channel3 */
      htim->Instance->CCMR2 |= TIM_CCMR2_OC3PE;
 8002076:	68fb      	ldr	r3, [r7, #12]
 8002078:	681b      	ldr	r3, [r3, #0]
 800207a:	69da      	ldr	r2, [r3, #28]
 800207c:	68fb      	ldr	r3, [r7, #12]
 800207e:	681b      	ldr	r3, [r3, #0]
 8002080:	f042 0208 	orr.w	r2, r2, #8
 8002084:	61da      	str	r2, [r3, #28]

      /* Configure the Output Fast mode */
      htim->Instance->CCMR2 &= ~TIM_CCMR2_OC3FE;
 8002086:	68fb      	ldr	r3, [r7, #12]
 8002088:	681b      	ldr	r3, [r3, #0]
 800208a:	69da      	ldr	r2, [r3, #28]
 800208c:	68fb      	ldr	r3, [r7, #12]
 800208e:	681b      	ldr	r3, [r3, #0]
 8002090:	f022 0204 	bic.w	r2, r2, #4
 8002094:	61da      	str	r2, [r3, #28]
      htim->Instance->CCMR2 |= sConfig->OCFastMode;
 8002096:	68fb      	ldr	r3, [r7, #12]
 8002098:	681b      	ldr	r3, [r3, #0]
 800209a:	69d9      	ldr	r1, [r3, #28]
 800209c:	68bb      	ldr	r3, [r7, #8]
 800209e:	691a      	ldr	r2, [r3, #16]
 80020a0:	68fb      	ldr	r3, [r7, #12]
 80020a2:	681b      	ldr	r3, [r3, #0]
 80020a4:	430a      	orrs	r2, r1
 80020a6:	61da      	str	r2, [r3, #28]
      break;
 80020a8:	e023      	b.n	80020f2 <HAL_TIM_PWM_ConfigChannel+0x172>
    {
      /* Check the parameters */
      assert_param(IS_TIM_CC4_INSTANCE(htim->Instance));

      /* Configure the Channel 4 in PWM mode */
      TIM_OC4_SetConfig(htim->Instance, sConfig);
 80020aa:	68fb      	ldr	r3, [r7, #12]
 80020ac:	681b      	ldr	r3, [r3, #0]
 80020ae:	68b9      	ldr	r1, [r7, #8]
 80020b0:	4618      	mov	r0, r3
 80020b2:	f000 fab7 	bl	8002624 <TIM_OC4_SetConfig>

      /* Set the Preload enable bit for channel4 */
      htim->Instance->CCMR2 |= TIM_CCMR2_OC4PE;
 80020b6:	68fb      	ldr	r3, [r7, #12]
 80020b8:	681b      	ldr	r3, [r3, #0]
 80020ba:	69da      	ldr	r2, [r3, #28]
 80020bc:	68fb      	ldr	r3, [r7, #12]
 80020be:	681b      	ldr	r3, [r3, #0]
 80020c0:	f442 6200 	orr.w	r2, r2, #2048	; 0x800
 80020c4:	61da      	str	r2, [r3, #28]

      /* Configure the Output Fast mode */
      htim->Instance->CCMR2 &= ~TIM_CCMR2_OC4FE;
 80020c6:	68fb      	ldr	r3, [r7, #12]
 80020c8:	681b      	ldr	r3, [r3, #0]
 80020ca:	69da      	ldr	r2, [r3, #28]
 80020cc:	68fb      	ldr	r3, [r7, #12]
 80020ce:	681b      	ldr	r3, [r3, #0]
 80020d0:	f422 6280 	bic.w	r2, r2, #1024	; 0x400
 80020d4:	61da      	str	r2, [r3, #28]
      htim->Instance->CCMR2 |= sConfig->OCFastMode << 8U;
 80020d6:	68fb      	ldr	r3, [r7, #12]
 80020d8:	681b      	ldr	r3, [r3, #0]
 80020da:	69d9      	ldr	r1, [r3, #28]
 80020dc:	68bb      	ldr	r3, [r7, #8]
 80020de:	691b      	ldr	r3, [r3, #16]
 80020e0:	021a      	lsls	r2, r3, #8
 80020e2:	68fb      	ldr	r3, [r7, #12]
 80020e4:	681b      	ldr	r3, [r3, #0]
 80020e6:	430a      	orrs	r2, r1
 80020e8:	61da      	str	r2, [r3, #28]
      break;
 80020ea:	e002      	b.n	80020f2 <HAL_TIM_PWM_ConfigChannel+0x172>
    }

    default:
      status = HAL_ERROR;
 80020ec:	2301      	movs	r3, #1
 80020ee:	75fb      	strb	r3, [r7, #23]
      break;
 80020f0:	bf00      	nop
  }

  __HAL_UNLOCK(htim);
 80020f2:	68fb      	ldr	r3, [r7, #12]
 80020f4:	2200      	movs	r2, #0
 80020f6:	f883 203c 	strb.w	r2, [r3, #60]	; 0x3c

  return status;
 80020fa:	7dfb      	ldrb	r3, [r7, #23]
}
 80020fc:	4618      	mov	r0, r3
 80020fe:	3718      	adds	r7, #24
 8002100:	46bd      	mov	sp, r7
 8002102:	bd80      	pop	{r7, pc}

08002104 <HAL_TIM_ConfigClockSource>:
  * @param  sClockSourceConfig pointer to a TIM_ClockConfigTypeDef structure that
  *         contains the clock source information for the TIM peripheral.
  * @retval HAL status
  */
HAL_StatusTypeDef HAL_TIM_ConfigClockSource(TIM_HandleTypeDef *htim, const TIM_ClockConfigTypeDef *sClockSourceConfig)
{
 8002104:	b580      	push	{r7, lr}
 8002106:	b084      	sub	sp, #16
 8002108:	af00      	add	r7, sp, #0
 800210a:	6078      	str	r0, [r7, #4]
 800210c:	6039      	str	r1, [r7, #0]
  HAL_StatusTypeDef status = HAL_OK;
 800210e:	2300      	movs	r3, #0
 8002110:	73fb      	strb	r3, [r7, #15]
  uint32_t tmpsmcr;

  /* Process Locked */
  __HAL_LOCK(htim);
 8002112:	687b      	ldr	r3, [r7, #4]
 8002114:	f893 303c 	ldrb.w	r3, [r3, #60]	; 0x3c
 8002118:	2b01      	cmp	r3, #1
 800211a:	d101      	bne.n	8002120 <HAL_TIM_ConfigClockSource+0x1c>
 800211c:	2302      	movs	r3, #2
 800211e:	e0b4      	b.n	800228a <HAL_TIM_ConfigClockSource+0x186>
 8002120:	687b      	ldr	r3, [r7, #4]
 8002122:	2201      	movs	r2, #1
 8002124:	f883 203c 	strb.w	r2, [r3, #60]	; 0x3c

  htim->State = HAL_TIM_STATE_BUSY;
 8002128:	687b      	ldr	r3, [r7, #4]
 800212a:	2202      	movs	r2, #2
 800212c:	f883 203d 	strb.w	r2, [r3, #61]	; 0x3d

  /* Check the parameters */
  assert_param(IS_TIM_CLOCKSOURCE(sClockSourceConfig->ClockSource));

  /* Reset the SMS, TS, ECE, ETPS and ETRF bits */
  tmpsmcr = htim->Instance->SMCR;
 8002130:	687b      	ldr	r3, [r7, #4]
 8002132:	681b      	ldr	r3, [r3, #0]
 8002134:	689b      	ldr	r3, [r3, #8]
 8002136:	60bb      	str	r3, [r7, #8]
  tmpsmcr &= ~(TIM_SMCR_SMS | TIM_SMCR_TS);
 8002138:	68bb      	ldr	r3, [r7, #8]
 800213a:	f023 0377 	bic.w	r3, r3, #119	; 0x77
 800213e:	60bb      	str	r3, [r7, #8]
  tmpsmcr &= ~(TIM_SMCR_ETF | TIM_SMCR_ETPS | TIM_SMCR_ECE | TIM_SMCR_ETP);
 8002140:	68bb      	ldr	r3, [r7, #8]
 8002142:	f423 437f 	bic.w	r3, r3, #65280	; 0xff00
 8002146:	60bb      	str	r3, [r7, #8]
  htim->Instance->SMCR = tmpsmcr;
 8002148:	687b      	ldr	r3, [r7, #4]
 800214a:	681b      	ldr	r3, [r3, #0]
 800214c:	68ba      	ldr	r2, [r7, #8]
 800214e:	609a      	str	r2, [r3, #8]

  switch (sClockSourceConfig->ClockSource)
 8002150:	683b      	ldr	r3, [r7, #0]
 8002152:	681b      	ldr	r3, [r3, #0]
 8002154:	f5b3 5f00 	cmp.w	r3, #8192	; 0x2000
 8002158:	d03e      	beq.n	80021d8 <HAL_TIM_ConfigClockSource+0xd4>
 800215a:	f5b3 5f00 	cmp.w	r3, #8192	; 0x2000
 800215e:	f200 8087 	bhi.w	8002270 <HAL_TIM_ConfigClockSource+0x16c>
 8002162:	f5b3 5f80 	cmp.w	r3, #4096	; 0x1000
 8002166:	f000 8086 	beq.w	8002276 <HAL_TIM_ConfigClockSource+0x172>
 800216a:	f5b3 5f80 	cmp.w	r3, #4096	; 0x1000
 800216e:	d87f      	bhi.n	8002270 <HAL_TIM_ConfigClockSource+0x16c>
 8002170:	2b70      	cmp	r3, #112	; 0x70
 8002172:	d01a      	beq.n	80021aa <HAL_TIM_ConfigClockSource+0xa6>
 8002174:	2b70      	cmp	r3, #112	; 0x70
 8002176:	d87b      	bhi.n	8002270 <HAL_TIM_ConfigClockSource+0x16c>
 8002178:	2b60      	cmp	r3, #96	; 0x60
 800217a:	d050      	beq.n	800221e <HAL_TIM_ConfigClockSource+0x11a>
 800217c:	2b60      	cmp	r3, #96	; 0x60
 800217e:	d877      	bhi.n	8002270 <HAL_TIM_ConfigClockSource+0x16c>
 8002180:	2b50      	cmp	r3, #80	; 0x50
 8002182:	d03c      	beq.n	80021fe <HAL_TIM_ConfigClockSource+0xfa>
 8002184:	2b50      	cmp	r3, #80	; 0x50
 8002186:	d873      	bhi.n	8002270 <HAL_TIM_ConfigClockSource+0x16c>
 8002188:	2b40      	cmp	r3, #64	; 0x40
 800218a:	d058      	beq.n	800223e <HAL_TIM_ConfigClockSource+0x13a>
 800218c:	2b40      	cmp	r3, #64	; 0x40
 800218e:	d86f      	bhi.n	8002270 <HAL_TIM_ConfigClockSource+0x16c>
 8002190:	2b30      	cmp	r3, #48	; 0x30
 8002192:	d064      	beq.n	800225e <HAL_TIM_ConfigClockSource+0x15a>
 8002194:	2b30      	cmp	r3, #48	; 0x30
 8002196:	d86b      	bhi.n	8002270 <HAL_TIM_ConfigClockSource+0x16c>
 8002198:	2b20      	cmp	r3, #32
 800219a:	d060      	beq.n	800225e <HAL_TIM_ConfigClockSource+0x15a>
 800219c:	2b20      	cmp	r3, #32
 800219e:	d867      	bhi.n	8002270 <HAL_TIM_ConfigClockSource+0x16c>
 80021a0:	2b00      	cmp	r3, #0
 80021a2:	d05c      	beq.n	800225e <HAL_TIM_ConfigClockSource+0x15a>
 80021a4:	2b10      	cmp	r3, #16
 80021a6:	d05a      	beq.n	800225e <HAL_TIM_ConfigClockSource+0x15a>
 80021a8:	e062      	b.n	8002270 <HAL_TIM_ConfigClockSource+0x16c>
      assert_param(IS_TIM_CLOCKPRESCALER(sClockSourceConfig->ClockPrescaler));
      assert_param(IS_TIM_CLOCKPOLARITY(sClockSourceConfig->ClockPolarity));
      assert_param(IS_TIM_CLOCKFILTER(sClockSourceConfig->ClockFilter));

      /* Configure the ETR Clock source */
      TIM_ETR_SetConfig(htim->Instance,
 80021aa:	687b      	ldr	r3, [r7, #4]
 80021ac:	6818      	ldr	r0, [r3, #0]
                        sClockSourceConfig->ClockPrescaler,
 80021ae:	683b      	ldr	r3, [r7, #0]
 80021b0:	6899      	ldr	r1, [r3, #8]
                        sClockSourceConfig->ClockPolarity,
 80021b2:	683b      	ldr	r3, [r7, #0]
 80021b4:	685a      	ldr	r2, [r3, #4]
                        sClockSourceConfig->ClockFilter);
 80021b6:	683b      	ldr	r3, [r7, #0]
 80021b8:	68db      	ldr	r3, [r3, #12]
      TIM_ETR_SetConfig(htim->Instance,
 80021ba:	f000 fafd 	bl	80027b8 <TIM_ETR_SetConfig>

      /* Select the External clock mode1 and the ETRF trigger */
      tmpsmcr = htim->Instance->SMCR;
 80021be:	687b      	ldr	r3, [r7, #4]
 80021c0:	681b      	ldr	r3, [r3, #0]
 80021c2:	689b      	ldr	r3, [r3, #8]
 80021c4:	60bb      	str	r3, [r7, #8]
      tmpsmcr |= (TIM_SLAVEMODE_EXTERNAL1 | TIM_CLOCKSOURCE_ETRMODE1);
 80021c6:	68bb      	ldr	r3, [r7, #8]
 80021c8:	f043 0377 	orr.w	r3, r3, #119	; 0x77
 80021cc:	60bb      	str	r3, [r7, #8]
      /* Write to TIMx SMCR */
      htim->Instance->SMCR = tmpsmcr;
 80021ce:	687b      	ldr	r3, [r7, #4]
 80021d0:	681b      	ldr	r3, [r3, #0]
 80021d2:	68ba      	ldr	r2, [r7, #8]
 80021d4:	609a      	str	r2, [r3, #8]
      break;
 80021d6:	e04f      	b.n	8002278 <HAL_TIM_ConfigClockSource+0x174>
      assert_param(IS_TIM_CLOCKPRESCALER(sClockSourceConfig->ClockPrescaler));
      assert_param(IS_TIM_CLOCKPOLARITY(sClockSourceConfig->ClockPolarity));
      assert_param(IS_TIM_CLOCKFILTER(sClockSourceConfig->ClockFilter));

      /* Configure the ETR Clock source */
      TIM_ETR_SetConfig(htim->Instance,
 80021d8:	687b      	ldr	r3, [r7, #4]
 80021da:	6818      	ldr	r0, [r3, #0]
                        sClockSourceConfig->ClockPrescaler,
 80021dc:	683b      	ldr	r3, [r7, #0]
 80021de:	6899      	ldr	r1, [r3, #8]
                        sClockSourceConfig->ClockPolarity,
 80021e0:	683b      	ldr	r3, [r7, #0]
 80021e2:	685a      	ldr	r2, [r3, #4]
                        sClockSourceConfig->ClockFilter);
 80021e4:	683b      	ldr	r3, [r7, #0]
 80021e6:	68db      	ldr	r3, [r3, #12]
      TIM_ETR_SetConfig(htim->Instance,
 80021e8:	f000 fae6 	bl	80027b8 <TIM_ETR_SetConfig>
      /* Enable the External clock mode2 */
      htim->Instance->SMCR |= TIM_SMCR_ECE;
 80021ec:	687b      	ldr	r3, [r7, #4]
 80021ee:	681b      	ldr	r3, [r3, #0]
 80021f0:	689a      	ldr	r2, [r3, #8]
 80021f2:	687b      	ldr	r3, [r7, #4]
 80021f4:	681b      	ldr	r3, [r3, #0]
 80021f6:	f442 4280 	orr.w	r2, r2, #16384	; 0x4000
 80021fa:	609a      	str	r2, [r3, #8]
      break;
 80021fc:	e03c      	b.n	8002278 <HAL_TIM_ConfigClockSource+0x174>

      /* Check TI1 input conditioning related parameters */
      assert_param(IS_TIM_CLOCKPOLARITY(sClockSourceConfig->ClockPolarity));
      assert_param(IS_TIM_CLOCKFILTER(sClockSourceConfig->ClockFilter));

      TIM_TI1_ConfigInputStage(htim->Instance,
 80021fe:	687b      	ldr	r3, [r7, #4]
 8002200:	6818      	ldr	r0, [r3, #0]
                               sClockSourceConfig->ClockPolarity,
 8002202:	683b      	ldr	r3, [r7, #0]
 8002204:	6859      	ldr	r1, [r3, #4]
                               sClockSourceConfig->ClockFilter);
 8002206:	683b      	ldr	r3, [r7, #0]
 8002208:	68db      	ldr	r3, [r3, #12]
      TIM_TI1_ConfigInputStage(htim->Instance,
 800220a:	461a      	mov	r2, r3
 800220c:	f000 fa5a 	bl	80026c4 <TIM_TI1_ConfigInputStage>
      TIM_ITRx_SetConfig(htim->Instance, TIM_CLOCKSOURCE_TI1);
 8002210:	687b      	ldr	r3, [r7, #4]
 8002212:	681b      	ldr	r3, [r3, #0]
 8002214:	2150      	movs	r1, #80	; 0x50
 8002216:	4618      	mov	r0, r3
 8002218:	f000 fab3 	bl	8002782 <TIM_ITRx_SetConfig>
      break;
 800221c:	e02c      	b.n	8002278 <HAL_TIM_ConfigClockSource+0x174>

      /* Check TI2 input conditioning related parameters */
      assert_param(IS_TIM_CLOCKPOLARITY(sClockSourceConfig->ClockPolarity));
      assert_param(IS_TIM_CLOCKFILTER(sClockSourceConfig->ClockFilter));

      TIM_TI2_ConfigInputStage(htim->Instance,
 800221e:	687b      	ldr	r3, [r7, #4]
 8002220:	6818      	ldr	r0, [r3, #0]
                               sClockSourceConfig->ClockPolarity,
 8002222:	683b      	ldr	r3, [r7, #0]
 8002224:	6859      	ldr	r1, [r3, #4]
                               sClockSourceConfig->ClockFilter);
 8002226:	683b      	ldr	r3, [r7, #0]
 8002228:	68db      	ldr	r3, [r3, #12]
      TIM_TI2_ConfigInputStage(htim->Instance,
 800222a:	461a      	mov	r2, r3
 800222c:	f000 fa79 	bl	8002722 <TIM_TI2_ConfigInputStage>
      TIM_ITRx_SetConfig(htim->Instance, TIM_CLOCKSOURCE_TI2);
 8002230:	687b      	ldr	r3, [r7, #4]
 8002232:	681b      	ldr	r3, [r3, #0]
 8002234:	2160      	movs	r1, #96	; 0x60
 8002236:	4618      	mov	r0, r3
 8002238:	f000 faa3 	bl	8002782 <TIM_ITRx_SetConfig>
      break;
 800223c:	e01c      	b.n	8002278 <HAL_TIM_ConfigClockSource+0x174>

      /* Check TI1 input conditioning related parameters */
      assert_param(IS_TIM_CLOCKPOLARITY(sClockSourceConfig->ClockPolarity));
      assert_param(IS_TIM_CLOCKFILTER(sClockSourceConfig->ClockFilter));

      TIM_TI1_ConfigInputStage(htim->Instance,
 800223e:	687b      	ldr	r3, [r7, #4]
 8002240:	6818      	ldr	r0, [r3, #0]
                               sClockSourceConfig->ClockPolarity,
 8002242:	683b      	ldr	r3, [r7, #0]
 8002244:	6859      	ldr	r1, [r3, #4]
                               sClockSourceConfig->ClockFilter);
 8002246:	683b      	ldr	r3, [r7, #0]
 8002248:	68db      	ldr	r3, [r3, #12]
      TIM_TI1_ConfigInputStage(htim->Instance,
 800224a:	461a      	mov	r2, r3
 800224c:	f000 fa3a 	bl	80026c4 <TIM_TI1_ConfigInputStage>
      TIM_ITRx_SetConfig(htim->Instance, TIM_CLOCKSOURCE_TI1ED);
 8002250:	687b      	ldr	r3, [r7, #4]
 8002252:	681b      	ldr	r3, [r3, #0]
 8002254:	2140      	movs	r1, #64	; 0x40
 8002256:	4618      	mov	r0, r3
 8002258:	f000 fa93 	bl	8002782 <TIM_ITRx_SetConfig>
      break;
 800225c:	e00c      	b.n	8002278 <HAL_TIM_ConfigClockSource+0x174>
    case TIM_CLOCKSOURCE_ITR3:
    {
      /* Check whether or not the timer instance supports internal trigger input */
      assert_param(IS_TIM_CLOCKSOURCE_ITRX_INSTANCE(htim->Instance));

      TIM_ITRx_SetConfig(htim->Instance, sClockSourceConfig->ClockSource);
 800225e:	687b      	ldr	r3, [r7, #4]
 8002260:	681a      	ldr	r2, [r3, #0]
 8002262:	683b      	ldr	r3, [r7, #0]
 8002264:	681b      	ldr	r3, [r3, #0]
 8002266:	4619      	mov	r1, r3
 8002268:	4610      	mov	r0, r2
 800226a:	f000 fa8a 	bl	8002782 <TIM_ITRx_SetConfig>
      break;
 800226e:	e003      	b.n	8002278 <HAL_TIM_ConfigClockSource+0x174>
    }

    default:
      status = HAL_ERROR;
 8002270:	2301      	movs	r3, #1
 8002272:	73fb      	strb	r3, [r7, #15]
      break;
 8002274:	e000      	b.n	8002278 <HAL_TIM_ConfigClockSource+0x174>
      break;
 8002276:	bf00      	nop
  }
  htim->State = HAL_TIM_STATE_READY;
 8002278:	687b      	ldr	r3, [r7, #4]
 800227a:	2201      	movs	r2, #1
 800227c:	f883 203d 	strb.w	r2, [r3, #61]	; 0x3d

  __HAL_UNLOCK(htim);
 8002280:	687b      	ldr	r3, [r7, #4]
 8002282:	2200      	movs	r2, #0
 8002284:	f883 203c 	strb.w	r2, [r3, #60]	; 0x3c

  return status;
 8002288:	7bfb      	ldrb	r3, [r7, #15]
}
 800228a:	4618      	mov	r0, r3
 800228c:	3710      	adds	r7, #16
 800228e:	46bd      	mov	sp, r7
 8002290:	bd80      	pop	{r7, pc}
	...

08002294 <TIM_Base_SetConfig>:
  * @param  TIMx TIM peripheral
  * @param  Structure TIM Base configuration structure
  * @retval None
  */
void TIM_Base_SetConfig(TIM_TypeDef *TIMx, const TIM_Base_InitTypeDef *Structure)
{
 8002294:	b480      	push	{r7}
 8002296:	b085      	sub	sp, #20
 8002298:	af00      	add	r7, sp, #0
 800229a:	6078      	str	r0, [r7, #4]
 800229c:	6039      	str	r1, [r7, #0]
  uint32_t tmpcr1;
  tmpcr1 = TIMx->CR1;
 800229e:	687b      	ldr	r3, [r7, #4]
 80022a0:	681b      	ldr	r3, [r3, #0]
 80022a2:	60fb      	str	r3, [r7, #12]

  /* Set TIM Time Base Unit parameters ---------------------------------------*/
  if (IS_TIM_COUNTER_MODE_SELECT_INSTANCE(TIMx))
 80022a4:	687b      	ldr	r3, [r7, #4]
 80022a6:	4a3a      	ldr	r2, [pc, #232]	; (8002390 <TIM_Base_SetConfig+0xfc>)
 80022a8:	4293      	cmp	r3, r2
 80022aa:	d00f      	beq.n	80022cc <TIM_Base_SetConfig+0x38>
 80022ac:	687b      	ldr	r3, [r7, #4]
 80022ae:	f1b3 4f80 	cmp.w	r3, #1073741824	; 0x40000000
 80022b2:	d00b      	beq.n	80022cc <TIM_Base_SetConfig+0x38>
 80022b4:	687b      	ldr	r3, [r7, #4]
 80022b6:	4a37      	ldr	r2, [pc, #220]	; (8002394 <TIM_Base_SetConfig+0x100>)
 80022b8:	4293      	cmp	r3, r2
 80022ba:	d007      	beq.n	80022cc <TIM_Base_SetConfig+0x38>
 80022bc:	687b      	ldr	r3, [r7, #4]
 80022be:	4a36      	ldr	r2, [pc, #216]	; (8002398 <TIM_Base_SetConfig+0x104>)
 80022c0:	4293      	cmp	r3, r2
 80022c2:	d003      	beq.n	80022cc <TIM_Base_SetConfig+0x38>
 80022c4:	687b      	ldr	r3, [r7, #4]
 80022c6:	4a35      	ldr	r2, [pc, #212]	; (800239c <TIM_Base_SetConfig+0x108>)
 80022c8:	4293      	cmp	r3, r2
 80022ca:	d108      	bne.n	80022de <TIM_Base_SetConfig+0x4a>
  {
    /* Select the Counter Mode */
    tmpcr1 &= ~(TIM_CR1_DIR | TIM_CR1_CMS);
 80022cc:	68fb      	ldr	r3, [r7, #12]
 80022ce:	f023 0370 	bic.w	r3, r3, #112	; 0x70
 80022d2:	60fb      	str	r3, [r7, #12]
    tmpcr1 |= Structure->CounterMode;
 80022d4:	683b      	ldr	r3, [r7, #0]
 80022d6:	685b      	ldr	r3, [r3, #4]
 80022d8:	68fa      	ldr	r2, [r7, #12]
 80022da:	4313      	orrs	r3, r2
 80022dc:	60fb      	str	r3, [r7, #12]
  }

  if (IS_TIM_CLOCK_DIVISION_INSTANCE(TIMx))
 80022de:	687b      	ldr	r3, [r7, #4]
 80022e0:	4a2b      	ldr	r2, [pc, #172]	; (8002390 <TIM_Base_SetConfig+0xfc>)
 80022e2:	4293      	cmp	r3, r2
 80022e4:	d01b      	beq.n	800231e <TIM_Base_SetConfig+0x8a>
 80022e6:	687b      	ldr	r3, [r7, #4]
 80022e8:	f1b3 4f80 	cmp.w	r3, #1073741824	; 0x40000000
 80022ec:	d017      	beq.n	800231e <TIM_Base_SetConfig+0x8a>
 80022ee:	687b      	ldr	r3, [r7, #4]
 80022f0:	4a28      	ldr	r2, [pc, #160]	; (8002394 <TIM_Base_SetConfig+0x100>)
 80022f2:	4293      	cmp	r3, r2
 80022f4:	d013      	beq.n	800231e <TIM_Base_SetConfig+0x8a>
 80022f6:	687b      	ldr	r3, [r7, #4]
 80022f8:	4a27      	ldr	r2, [pc, #156]	; (8002398 <TIM_Base_SetConfig+0x104>)
 80022fa:	4293      	cmp	r3, r2
 80022fc:	d00f      	beq.n	800231e <TIM_Base_SetConfig+0x8a>
 80022fe:	687b      	ldr	r3, [r7, #4]
 8002300:	4a26      	ldr	r2, [pc, #152]	; (800239c <TIM_Base_SetConfig+0x108>)
 8002302:	4293      	cmp	r3, r2
 8002304:	d00b      	beq.n	800231e <TIM_Base_SetConfig+0x8a>
 8002306:	687b      	ldr	r3, [r7, #4]
 8002308:	4a25      	ldr	r2, [pc, #148]	; (80023a0 <TIM_Base_SetConfig+0x10c>)
 800230a:	4293      	cmp	r3, r2
 800230c:	d007      	beq.n	800231e <TIM_Base_SetConfig+0x8a>
 800230e:	687b      	ldr	r3, [r7, #4]
 8002310:	4a24      	ldr	r2, [pc, #144]	; (80023a4 <TIM_Base_SetConfig+0x110>)
 8002312:	4293      	cmp	r3, r2
 8002314:	d003      	beq.n	800231e <TIM_Base_SetConfig+0x8a>
 8002316:	687b      	ldr	r3, [r7, #4]
 8002318:	4a23      	ldr	r2, [pc, #140]	; (80023a8 <TIM_Base_SetConfig+0x114>)
 800231a:	4293      	cmp	r3, r2
 800231c:	d108      	bne.n	8002330 <TIM_Base_SetConfig+0x9c>
  {
    /* Set the clock division */
    tmpcr1 &= ~TIM_CR1_CKD;
 800231e:	68fb      	ldr	r3, [r7, #12]
 8002320:	f423 7340 	bic.w	r3, r3, #768	; 0x300
 8002324:	60fb      	str	r3, [r7, #12]
    tmpcr1 |= (uint32_t)Structure->ClockDivision;
 8002326:	683b      	ldr	r3, [r7, #0]
 8002328:	68db      	ldr	r3, [r3, #12]
 800232a:	68fa      	ldr	r2, [r7, #12]
 800232c:	4313      	orrs	r3, r2
 800232e:	60fb      	str	r3, [r7, #12]
  }

  /* Set the auto-reload preload */
  MODIFY_REG(tmpcr1, TIM_CR1_ARPE, Structure->AutoReloadPreload);
 8002330:	68fb      	ldr	r3, [r7, #12]
 8002332:	f023 0280 	bic.w	r2, r3, #128	; 0x80
 8002336:	683b      	ldr	r3, [r7, #0]
 8002338:	695b      	ldr	r3, [r3, #20]
 800233a:	4313      	orrs	r3, r2
 800233c:	60fb      	str	r3, [r7, #12]

  TIMx->CR1 = tmpcr1;
 800233e:	687b      	ldr	r3, [r7, #4]
 8002340:	68fa      	ldr	r2, [r7, #12]
 8002342:	601a      	str	r2, [r3, #0]

  /* Set the Autoreload value */
  TIMx->ARR = (uint32_t)Structure->Period ;
 8002344:	683b      	ldr	r3, [r7, #0]
 8002346:	689a      	ldr	r2, [r3, #8]
 8002348:	687b      	ldr	r3, [r7, #4]
 800234a:	62da      	str	r2, [r3, #44]	; 0x2c

  /* Set the Prescaler value */
  TIMx->PSC = Structure->Prescaler;
 800234c:	683b      	ldr	r3, [r7, #0]
 800234e:	681a      	ldr	r2, [r3, #0]
 8002350:	687b      	ldr	r3, [r7, #4]
 8002352:	629a      	str	r2, [r3, #40]	; 0x28

  if (IS_TIM_REPETITION_COUNTER_INSTANCE(TIMx))
 8002354:	687b      	ldr	r3, [r7, #4]
 8002356:	4a0e      	ldr	r2, [pc, #56]	; (8002390 <TIM_Base_SetConfig+0xfc>)
 8002358:	4293      	cmp	r3, r2
 800235a:	d103      	bne.n	8002364 <TIM_Base_SetConfig+0xd0>
  {
    /* Set the Repetition Counter value */
    TIMx->RCR = Structure->RepetitionCounter;
 800235c:	683b      	ldr	r3, [r7, #0]
 800235e:	691a      	ldr	r2, [r3, #16]
 8002360:	687b      	ldr	r3, [r7, #4]
 8002362:	631a      	str	r2, [r3, #48]	; 0x30
  }

  /* Generate an update event to reload the Prescaler
     and the repetition counter (only for advanced timer) value immediately */
  TIMx->EGR = TIM_EGR_UG;
 8002364:	687b      	ldr	r3, [r7, #4]
 8002366:	2201      	movs	r2, #1
 8002368:	615a      	str	r2, [r3, #20]

  /* Check if the update flag is set after the Update Generation, if so clear the UIF flag */
  if (HAL_IS_BIT_SET(TIMx->SR, TIM_FLAG_UPDATE))
 800236a:	687b      	ldr	r3, [r7, #4]
 800236c:	691b      	ldr	r3, [r3, #16]
 800236e:	f003 0301 	and.w	r3, r3, #1
 8002372:	2b01      	cmp	r3, #1
 8002374:	d105      	bne.n	8002382 <TIM_Base_SetConfig+0xee>
  {
    /* Clear the update flag */
    CLEAR_BIT(TIMx->SR, TIM_FLAG_UPDATE);
 8002376:	687b      	ldr	r3, [r7, #4]
 8002378:	691b      	ldr	r3, [r3, #16]
 800237a:	f023 0201 	bic.w	r2, r3, #1
 800237e:	687b      	ldr	r3, [r7, #4]
 8002380:	611a      	str	r2, [r3, #16]
  }
}
 8002382:	bf00      	nop
 8002384:	3714      	adds	r7, #20
 8002386:	46bd      	mov	sp, r7
 8002388:	f85d 7b04 	ldr.w	r7, [sp], #4
 800238c:	4770      	bx	lr
 800238e:	bf00      	nop
 8002390:	40010000 	.word	0x40010000
 8002394:	40000400 	.word	0x40000400
 8002398:	40000800 	.word	0x40000800
 800239c:	40000c00 	.word	0x40000c00
 80023a0:	40014000 	.word	0x40014000
 80023a4:	40014400 	.word	0x40014400
 80023a8:	40014800 	.word	0x40014800

080023ac <TIM_OC1_SetConfig>:
  * @param  TIMx to select the TIM peripheral
  * @param  OC_Config The output configuration structure
  * @retval None
  */
static void TIM_OC1_SetConfig(TIM_TypeDef *TIMx, const TIM_OC_InitTypeDef *OC_Config)
{
 80023ac:	b480      	push	{r7}
 80023ae:	b087      	sub	sp, #28
 80023b0:	af00      	add	r7, sp, #0
 80023b2:	6078      	str	r0, [r7, #4]
 80023b4:	6039      	str	r1, [r7, #0]
  uint32_t tmpccmrx;
  uint32_t tmpccer;
  uint32_t tmpcr2;

  /* Get the TIMx CCER register value */
  tmpccer = TIMx->CCER;
 80023b6:	687b      	ldr	r3, [r7, #4]
 80023b8:	6a1b      	ldr	r3, [r3, #32]
 80023ba:	617b      	str	r3, [r7, #20]

  /* Disable the Channel 1: Reset the CC1E Bit */
  TIMx->CCER &= ~TIM_CCER_CC1E;
 80023bc:	687b      	ldr	r3, [r7, #4]
 80023be:	6a1b      	ldr	r3, [r3, #32]
 80023c0:	f023 0201 	bic.w	r2, r3, #1
 80023c4:	687b      	ldr	r3, [r7, #4]
 80023c6:	621a      	str	r2, [r3, #32]

  /* Get the TIMx CR2 register value */
  tmpcr2 =  TIMx->CR2;
 80023c8:	687b      	ldr	r3, [r7, #4]
 80023ca:	685b      	ldr	r3, [r3, #4]
 80023cc:	613b      	str	r3, [r7, #16]

  /* Get the TIMx CCMR1 register value */
  tmpccmrx = TIMx->CCMR1;
 80023ce:	687b      	ldr	r3, [r7, #4]
 80023d0:	699b      	ldr	r3, [r3, #24]
 80023d2:	60fb      	str	r3, [r7, #12]

  /* Reset the Output Compare Mode Bits */
  tmpccmrx &= ~TIM_CCMR1_OC1M;
 80023d4:	68fb      	ldr	r3, [r7, #12]
 80023d6:	f023 0370 	bic.w	r3, r3, #112	; 0x70
 80023da:	60fb      	str	r3, [r7, #12]
  tmpccmrx &= ~TIM_CCMR1_CC1S;
 80023dc:	68fb      	ldr	r3, [r7, #12]
 80023de:	f023 0303 	bic.w	r3, r3, #3
 80023e2:	60fb      	str	r3, [r7, #12]
  /* Select the Output Compare Mode */
  tmpccmrx |= OC_Config->OCMode;
 80023e4:	683b      	ldr	r3, [r7, #0]
 80023e6:	681b      	ldr	r3, [r3, #0]
 80023e8:	68fa      	ldr	r2, [r7, #12]
 80023ea:	4313      	orrs	r3, r2
 80023ec:	60fb      	str	r3, [r7, #12]

  /* Reset the Output Polarity level */
  tmpccer &= ~TIM_CCER_CC1P;
 80023ee:	697b      	ldr	r3, [r7, #20]
 80023f0:	f023 0302 	bic.w	r3, r3, #2
 80023f4:	617b      	str	r3, [r7, #20]
  /* Set the Output Compare Polarity */
  tmpccer |= OC_Config->OCPolarity;
 80023f6:	683b      	ldr	r3, [r7, #0]
 80023f8:	689b      	ldr	r3, [r3, #8]
 80023fa:	697a      	ldr	r2, [r7, #20]
 80023fc:	4313      	orrs	r3, r2
 80023fe:	617b      	str	r3, [r7, #20]

  if (IS_TIM_CCXN_INSTANCE(TIMx, TIM_CHANNEL_1))
 8002400:	687b      	ldr	r3, [r7, #4]
 8002402:	4a1c      	ldr	r2, [pc, #112]	; (8002474 <TIM_OC1_SetConfig+0xc8>)
 8002404:	4293      	cmp	r3, r2
 8002406:	d10c      	bne.n	8002422 <TIM_OC1_SetConfig+0x76>
  {
    /* Check parameters */
    assert_param(IS_TIM_OCN_POLARITY(OC_Config->OCNPolarity));

    /* Reset the Output N Polarity level */
    tmpccer &= ~TIM_CCER_CC1NP;
 8002408:	697b      	ldr	r3, [r7, #20]
 800240a:	f023 0308 	bic.w	r3, r3, #8
 800240e:	617b      	str	r3, [r7, #20]
    /* Set the Output N Polarity */
    tmpccer |= OC_Config->OCNPolarity;
 8002410:	683b      	ldr	r3, [r7, #0]
 8002412:	68db      	ldr	r3, [r3, #12]
 8002414:	697a      	ldr	r2, [r7, #20]
 8002416:	4313      	orrs	r3, r2
 8002418:	617b      	str	r3, [r7, #20]
    /* Reset the Output N State */
    tmpccer &= ~TIM_CCER_CC1NE;
 800241a:	697b      	ldr	r3, [r7, #20]
 800241c:	f023 0304 	bic.w	r3, r3, #4
 8002420:	617b      	str	r3, [r7, #20]
  }

  if (IS_TIM_BREAK_INSTANCE(TIMx))
 8002422:	687b      	ldr	r3, [r7, #4]
 8002424:	4a13      	ldr	r2, [pc, #76]	; (8002474 <TIM_OC1_SetConfig+0xc8>)
 8002426:	4293      	cmp	r3, r2
 8002428:	d111      	bne.n	800244e <TIM_OC1_SetConfig+0xa2>
    /* Check parameters */
    assert_param(IS_TIM_OCNIDLE_STATE(OC_Config->OCNIdleState));
    assert_param(IS_TIM_OCIDLE_STATE(OC_Config->OCIdleState));

    /* Reset the Output Compare and Output Compare N IDLE State */
    tmpcr2 &= ~TIM_CR2_OIS1;
 800242a:	693b      	ldr	r3, [r7, #16]
 800242c:	f423 7380 	bic.w	r3, r3, #256	; 0x100
 8002430:	613b      	str	r3, [r7, #16]
    tmpcr2 &= ~TIM_CR2_OIS1N;
 8002432:	693b      	ldr	r3, [r7, #16]
 8002434:	f423 7300 	bic.w	r3, r3, #512	; 0x200
 8002438:	613b      	str	r3, [r7, #16]
    /* Set the Output Idle state */
    tmpcr2 |= OC_Config->OCIdleState;
 800243a:	683b      	ldr	r3, [r7, #0]
 800243c:	695b      	ldr	r3, [r3, #20]
 800243e:	693a      	ldr	r2, [r7, #16]
 8002440:	4313      	orrs	r3, r2
 8002442:	613b      	str	r3, [r7, #16]
    /* Set the Output N Idle state */
    tmpcr2 |= OC_Config->OCNIdleState;
 8002444:	683b      	ldr	r3, [r7, #0]
 8002446:	699b      	ldr	r3, [r3, #24]
 8002448:	693a      	ldr	r2, [r7, #16]
 800244a:	4313      	orrs	r3, r2
 800244c:	613b      	str	r3, [r7, #16]
  }

  /* Write to TIMx CR2 */
  TIMx->CR2 = tmpcr2;
 800244e:	687b      	ldr	r3, [r7, #4]
 8002450:	693a      	ldr	r2, [r7, #16]
 8002452:	605a      	str	r2, [r3, #4]

  /* Write to TIMx CCMR1 */
  TIMx->CCMR1 = tmpccmrx;
 8002454:	687b      	ldr	r3, [r7, #4]
 8002456:	68fa      	ldr	r2, [r7, #12]
 8002458:	619a      	str	r2, [r3, #24]

  /* Set the Capture Compare Register value */
  TIMx->CCR1 = OC_Config->Pulse;
 800245a:	683b      	ldr	r3, [r7, #0]
 800245c:	685a      	ldr	r2, [r3, #4]
 800245e:	687b      	ldr	r3, [r7, #4]
 8002460:	635a      	str	r2, [r3, #52]	; 0x34

  /* Write to TIMx CCER */
  TIMx->CCER = tmpccer;
 8002462:	687b      	ldr	r3, [r7, #4]
 8002464:	697a      	ldr	r2, [r7, #20]
 8002466:	621a      	str	r2, [r3, #32]
}
 8002468:	bf00      	nop
 800246a:	371c      	adds	r7, #28
 800246c:	46bd      	mov	sp, r7
 800246e:	f85d 7b04 	ldr.w	r7, [sp], #4
 8002472:	4770      	bx	lr
 8002474:	40010000 	.word	0x40010000

08002478 <TIM_OC2_SetConfig>:
  * @param  TIMx to select the TIM peripheral
  * @param  OC_Config The output configuration structure
  * @retval None
  */
void TIM_OC2_SetConfig(TIM_TypeDef *TIMx, const TIM_OC_InitTypeDef *OC_Config)
{
 8002478:	b480      	push	{r7}
 800247a:	b087      	sub	sp, #28
 800247c:	af00      	add	r7, sp, #0
 800247e:	6078      	str	r0, [r7, #4]
 8002480:	6039      	str	r1, [r7, #0]
  uint32_t tmpccmrx;
  uint32_t tmpccer;
  uint32_t tmpcr2;

  /* Get the TIMx CCER register value */
  tmpccer = TIMx->CCER;
 8002482:	687b      	ldr	r3, [r7, #4]
 8002484:	6a1b      	ldr	r3, [r3, #32]
 8002486:	617b      	str	r3, [r7, #20]

  /* Disable the Channel 2: Reset the CC2E Bit */
  TIMx->CCER &= ~TIM_CCER_CC2E;
 8002488:	687b      	ldr	r3, [r7, #4]
 800248a:	6a1b      	ldr	r3, [r3, #32]
 800248c:	f023 0210 	bic.w	r2, r3, #16
 8002490:	687b      	ldr	r3, [r7, #4]
 8002492:	621a      	str	r2, [r3, #32]

  /* Get the TIMx CR2 register value */
  tmpcr2 =  TIMx->CR2;
 8002494:	687b      	ldr	r3, [r7, #4]
 8002496:	685b      	ldr	r3, [r3, #4]
 8002498:	613b      	str	r3, [r7, #16]

  /* Get the TIMx CCMR1 register value */
  tmpccmrx = TIMx->CCMR1;
 800249a:	687b      	ldr	r3, [r7, #4]
 800249c:	699b      	ldr	r3, [r3, #24]
 800249e:	60fb      	str	r3, [r7, #12]

  /* Reset the Output Compare mode and Capture/Compare selection Bits */
  tmpccmrx &= ~TIM_CCMR1_OC2M;
 80024a0:	68fb      	ldr	r3, [r7, #12]
 80024a2:	f423 43e0 	bic.w	r3, r3, #28672	; 0x7000
 80024a6:	60fb      	str	r3, [r7, #12]
  tmpccmrx &= ~TIM_CCMR1_CC2S;
 80024a8:	68fb      	ldr	r3, [r7, #12]
 80024aa:	f423 7340 	bic.w	r3, r3, #768	; 0x300
 80024ae:	60fb      	str	r3, [r7, #12]

  /* Select the Output Compare Mode */
  tmpccmrx |= (OC_Config->OCMode << 8U);
 80024b0:	683b      	ldr	r3, [r7, #0]
 80024b2:	681b      	ldr	r3, [r3, #0]
 80024b4:	021b      	lsls	r3, r3, #8
 80024b6:	68fa      	ldr	r2, [r7, #12]
 80024b8:	4313      	orrs	r3, r2
 80024ba:	60fb      	str	r3, [r7, #12]

  /* Reset the Output Polarity level */
  tmpccer &= ~TIM_CCER_CC2P;
 80024bc:	697b      	ldr	r3, [r7, #20]
 80024be:	f023 0320 	bic.w	r3, r3, #32
 80024c2:	617b      	str	r3, [r7, #20]
  /* Set the Output Compare Polarity */
  tmpccer |= (OC_Config->OCPolarity << 4U);
 80024c4:	683b      	ldr	r3, [r7, #0]
 80024c6:	689b      	ldr	r3, [r3, #8]
 80024c8:	011b      	lsls	r3, r3, #4
 80024ca:	697a      	ldr	r2, [r7, #20]
 80024cc:	4313      	orrs	r3, r2
 80024ce:	617b      	str	r3, [r7, #20]

  if (IS_TIM_CCXN_INSTANCE(TIMx, TIM_CHANNEL_2))
 80024d0:	687b      	ldr	r3, [r7, #4]
 80024d2:	4a1e      	ldr	r2, [pc, #120]	; (800254c <TIM_OC2_SetConfig+0xd4>)
 80024d4:	4293      	cmp	r3, r2
 80024d6:	d10d      	bne.n	80024f4 <TIM_OC2_SetConfig+0x7c>
  {
    assert_param(IS_TIM_OCN_POLARITY(OC_Config->OCNPolarity));

    /* Reset the Output N Polarity level */
    tmpccer &= ~TIM_CCER_CC2NP;
 80024d8:	697b      	ldr	r3, [r7, #20]
 80024da:	f023 0380 	bic.w	r3, r3, #128	; 0x80
 80024de:	617b      	str	r3, [r7, #20]
    /* Set the Output N Polarity */
    tmpccer |= (OC_Config->OCNPolarity << 4U);
 80024e0:	683b      	ldr	r3, [r7, #0]
 80024e2:	68db      	ldr	r3, [r3, #12]
 80024e4:	011b      	lsls	r3, r3, #4
 80024e6:	697a      	ldr	r2, [r7, #20]
 80024e8:	4313      	orrs	r3, r2
 80024ea:	617b      	str	r3, [r7, #20]
    /* Reset the Output N State */
    tmpccer &= ~TIM_CCER_CC2NE;
 80024ec:	697b      	ldr	r3, [r7, #20]
 80024ee:	f023 0340 	bic.w	r3, r3, #64	; 0x40
 80024f2:	617b      	str	r3, [r7, #20]
  }

  if (IS_TIM_BREAK_INSTANCE(TIMx))
 80024f4:	687b      	ldr	r3, [r7, #4]
 80024f6:	4a15      	ldr	r2, [pc, #84]	; (800254c <TIM_OC2_SetConfig+0xd4>)
 80024f8:	4293      	cmp	r3, r2
 80024fa:	d113      	bne.n	8002524 <TIM_OC2_SetConfig+0xac>
    /* Check parameters */
    assert_param(IS_TIM_OCNIDLE_STATE(OC_Config->OCNIdleState));
    assert_param(IS_TIM_OCIDLE_STATE(OC_Config->OCIdleState));

    /* Reset the Output Compare and Output Compare N IDLE State */
    tmpcr2 &= ~TIM_CR2_OIS2;
 80024fc:	693b      	ldr	r3, [r7, #16]
 80024fe:	f423 6380 	bic.w	r3, r3, #1024	; 0x400
 8002502:	613b      	str	r3, [r7, #16]
    tmpcr2 &= ~TIM_CR2_OIS2N;
 8002504:	693b      	ldr	r3, [r7, #16]
 8002506:	f423 6300 	bic.w	r3, r3, #2048	; 0x800
 800250a:	613b      	str	r3, [r7, #16]
    /* Set the Output Idle state */
    tmpcr2 |= (OC_Config->OCIdleState << 2U);
 800250c:	683b      	ldr	r3, [r7, #0]
 800250e:	695b      	ldr	r3, [r3, #20]
 8002510:	009b      	lsls	r3, r3, #2
 8002512:	693a      	ldr	r2, [r7, #16]
 8002514:	4313      	orrs	r3, r2
 8002516:	613b      	str	r3, [r7, #16]
    /* Set the Output N Idle state */
    tmpcr2 |= (OC_Config->OCNIdleState << 2U);
 8002518:	683b      	ldr	r3, [r7, #0]
 800251a:	699b      	ldr	r3, [r3, #24]
 800251c:	009b      	lsls	r3, r3, #2
 800251e:	693a      	ldr	r2, [r7, #16]
 8002520:	4313      	orrs	r3, r2
 8002522:	613b      	str	r3, [r7, #16]
  }

  /* Write to TIMx CR2 */
  TIMx->CR2 = tmpcr2;
 8002524:	687b      	ldr	r3, [r7, #4]
 8002526:	693a      	ldr	r2, [r7, #16]
 8002528:	605a      	str	r2, [r3, #4]

  /* Write to TIMx CCMR1 */
  TIMx->CCMR1 = tmpccmrx;
 800252a:	687b      	ldr	r3, [r7, #4]
 800252c:	68fa      	ldr	r2, [r7, #12]
 800252e:	619a      	str	r2, [r3, #24]

  /* Set the Capture Compare Register value */
  TIMx->CCR2 = OC_Config->Pulse;
 8002530:	683b      	ldr	r3, [r7, #0]
 8002532:	685a      	ldr	r2, [r3, #4]
 8002534:	687b      	ldr	r3, [r7, #4]
 8002536:	639a      	str	r2, [r3, #56]	; 0x38

  /* Write to TIMx CCER */
  TIMx->CCER = tmpccer;
 8002538:	687b      	ldr	r3, [r7, #4]
 800253a:	697a      	ldr	r2, [r7, #20]
 800253c:	621a      	str	r2, [r3, #32]
}
 800253e:	bf00      	nop
 8002540:	371c      	adds	r7, #28
 8002542:	46bd      	mov	sp, r7
 8002544:	f85d 7b04 	ldr.w	r7, [sp], #4
 8002548:	4770      	bx	lr
 800254a:	bf00      	nop
 800254c:	40010000 	.word	0x40010000

08002550 <TIM_OC3_SetConfig>:
  * @param  TIMx to select the TIM peripheral
  * @param  OC_Config The output configuration structure
  * @retval None
  */
static void TIM_OC3_SetConfig(TIM_TypeDef *TIMx, const TIM_OC_InitTypeDef *OC_Config)
{
 8002550:	b480      	push	{r7}
 8002552:	b087      	sub	sp, #28
 8002554:	af00      	add	r7, sp, #0
 8002556:	6078      	str	r0, [r7, #4]
 8002558:	6039      	str	r1, [r7, #0]
  uint32_t tmpccmrx;
  uint32_t tmpccer;
  uint32_t tmpcr2;

  /* Get the TIMx CCER register value */
  tmpccer = TIMx->CCER;
 800255a:	687b      	ldr	r3, [r7, #4]
 800255c:	6a1b      	ldr	r3, [r3, #32]
 800255e:	617b      	str	r3, [r7, #20]

  /* Disable the Channel 3: Reset the CC2E Bit */
  TIMx->CCER &= ~TIM_CCER_CC3E;
 8002560:	687b      	ldr	r3, [r7, #4]
 8002562:	6a1b      	ldr	r3, [r3, #32]
 8002564:	f423 7280 	bic.w	r2, r3, #256	; 0x100
 8002568:	687b      	ldr	r3, [r7, #4]
 800256a:	621a      	str	r2, [r3, #32]

  /* Get the TIMx CR2 register value */
  tmpcr2 =  TIMx->CR2;
 800256c:	687b      	ldr	r3, [r7, #4]
 800256e:	685b      	ldr	r3, [r3, #4]
 8002570:	613b      	str	r3, [r7, #16]

  /* Get the TIMx CCMR2 register value */
  tmpccmrx = TIMx->CCMR2;
 8002572:	687b      	ldr	r3, [r7, #4]
 8002574:	69db      	ldr	r3, [r3, #28]
 8002576:	60fb      	str	r3, [r7, #12]

  /* Reset the Output Compare mode and Capture/Compare selection Bits */
  tmpccmrx &= ~TIM_CCMR2_OC3M;
 8002578:	68fb      	ldr	r3, [r7, #12]
 800257a:	f023 0370 	bic.w	r3, r3, #112	; 0x70
 800257e:	60fb      	str	r3, [r7, #12]
  tmpccmrx &= ~TIM_CCMR2_CC3S;
 8002580:	68fb      	ldr	r3, [r7, #12]
 8002582:	f023 0303 	bic.w	r3, r3, #3
 8002586:	60fb      	str	r3, [r7, #12]
  /* Select the Output Compare Mode */
  tmpccmrx |= OC_Config->OCMode;
 8002588:	683b      	ldr	r3, [r7, #0]
 800258a:	681b      	ldr	r3, [r3, #0]
 800258c:	68fa      	ldr	r2, [r7, #12]
 800258e:	4313      	orrs	r3, r2
 8002590:	60fb      	str	r3, [r7, #12]

  /* Reset the Output Polarity level */
  tmpccer &= ~TIM_CCER_CC3P;
 8002592:	697b      	ldr	r3, [r7, #20]
 8002594:	f423 7300 	bic.w	r3, r3, #512	; 0x200
 8002598:	617b      	str	r3, [r7, #20]
  /* Set the Output Compare Polarity */
  tmpccer |= (OC_Config->OCPolarity << 8U);
 800259a:	683b      	ldr	r3, [r7, #0]
 800259c:	689b      	ldr	r3, [r3, #8]
 800259e:	021b      	lsls	r3, r3, #8
 80025a0:	697a      	ldr	r2, [r7, #20]
 80025a2:	4313      	orrs	r3, r2
 80025a4:	617b      	str	r3, [r7, #20]

  if (IS_TIM_CCXN_INSTANCE(TIMx, TIM_CHANNEL_3))
 80025a6:	687b      	ldr	r3, [r7, #4]
 80025a8:	4a1d      	ldr	r2, [pc, #116]	; (8002620 <TIM_OC3_SetConfig+0xd0>)
 80025aa:	4293      	cmp	r3, r2
 80025ac:	d10d      	bne.n	80025ca <TIM_OC3_SetConfig+0x7a>
  {
    assert_param(IS_TIM_OCN_POLARITY(OC_Config->OCNPolarity));

    /* Reset the Output N Polarity level */
    tmpccer &= ~TIM_CCER_CC3NP;
 80025ae:	697b      	ldr	r3, [r7, #20]
 80025b0:	f423 6300 	bic.w	r3, r3, #2048	; 0x800
 80025b4:	617b      	str	r3, [r7, #20]
    /* Set the Output N Polarity */
    tmpccer |= (OC_Config->OCNPolarity << 8U);
 80025b6:	683b      	ldr	r3, [r7, #0]
 80025b8:	68db      	ldr	r3, [r3, #12]
 80025ba:	021b      	lsls	r3, r3, #8
 80025bc:	697a      	ldr	r2, [r7, #20]
 80025be:	4313      	orrs	r3, r2
 80025c0:	617b      	str	r3, [r7, #20]
    /* Reset the Output N State */
    tmpccer &= ~TIM_CCER_CC3NE;
 80025c2:	697b      	ldr	r3, [r7, #20]
 80025c4:	f423 6380 	bic.w	r3, r3, #1024	; 0x400
 80025c8:	617b      	str	r3, [r7, #20]
  }

  if (IS_TIM_BREAK_INSTANCE(TIMx))
 80025ca:	687b      	ldr	r3, [r7, #4]
 80025cc:	4a14      	ldr	r2, [pc, #80]	; (8002620 <TIM_OC3_SetConfig+0xd0>)
 80025ce:	4293      	cmp	r3, r2
 80025d0:	d113      	bne.n	80025fa <TIM_OC3_SetConfig+0xaa>
    /* Check parameters */
    assert_param(IS_TIM_OCNIDLE_STATE(OC_Config->OCNIdleState));
    assert_param(IS_TIM_OCIDLE_STATE(OC_Config->OCIdleState));

    /* Reset the Output Compare and Output Compare N IDLE State */
    tmpcr2 &= ~TIM_CR2_OIS3;
 80025d2:	693b      	ldr	r3, [r7, #16]
 80025d4:	f423 5380 	bic.w	r3, r3, #4096	; 0x1000
 80025d8:	613b      	str	r3, [r7, #16]
    tmpcr2 &= ~TIM_CR2_OIS3N;
 80025da:	693b      	ldr	r3, [r7, #16]
 80025dc:	f423 5300 	bic.w	r3, r3, #8192	; 0x2000
 80025e0:	613b      	str	r3, [r7, #16]
    /* Set the Output Idle state */
    tmpcr2 |= (OC_Config->OCIdleState << 4U);
 80025e2:	683b      	ldr	r3, [r7, #0]
 80025e4:	695b      	ldr	r3, [r3, #20]
 80025e6:	011b      	lsls	r3, r3, #4
 80025e8:	693a      	ldr	r2, [r7, #16]
 80025ea:	4313      	orrs	r3, r2
 80025ec:	613b      	str	r3, [r7, #16]
    /* Set the Output N Idle state */
    tmpcr2 |= (OC_Config->OCNIdleState << 4U);
 80025ee:	683b      	ldr	r3, [r7, #0]
 80025f0:	699b      	ldr	r3, [r3, #24]
 80025f2:	011b      	lsls	r3, r3, #4
 80025f4:	693a      	ldr	r2, [r7, #16]
 80025f6:	4313      	orrs	r3, r2
 80025f8:	613b      	str	r3, [r7, #16]
  }

  /* Write to TIMx CR2 */
  TIMx->CR2 = tmpcr2;
 80025fa:	687b      	ldr	r3, [r7, #4]
 80025fc:	693a      	ldr	r2, [r7, #16]
 80025fe:	605a      	str	r2, [r3, #4]

  /* Write to TIMx CCMR2 */
  TIMx->CCMR2 = tmpccmrx;
 8002600:	687b      	ldr	r3, [r7, #4]
 8002602:	68fa      	ldr	r2, [r7, #12]
 8002604:	61da      	str	r2, [r3, #28]

  /* Set the Capture Compare Register value */
  TIMx->CCR3 = OC_Config->Pulse;
 8002606:	683b      	ldr	r3, [r7, #0]
 8002608:	685a      	ldr	r2, [r3, #4]
 800260a:	687b      	ldr	r3, [r7, #4]
 800260c:	63da      	str	r2, [r3, #60]	; 0x3c

  /* Write to TIMx CCER */
  TIMx->CCER = tmpccer;
 800260e:	687b      	ldr	r3, [r7, #4]
 8002610:	697a      	ldr	r2, [r7, #20]
 8002612:	621a      	str	r2, [r3, #32]
}
 8002614:	bf00      	nop
 8002616:	371c      	adds	r7, #28
 8002618:	46bd      	mov	sp, r7
 800261a:	f85d 7b04 	ldr.w	r7, [sp], #4
 800261e:	4770      	bx	lr
 8002620:	40010000 	.word	0x40010000

08002624 <TIM_OC4_SetConfig>:
  * @param  TIMx to select the TIM peripheral
  * @param  OC_Config The output configuration structure
  * @retval None
  */
static void TIM_OC4_SetConfig(TIM_TypeDef *TIMx, const TIM_OC_InitTypeDef *OC_Config)
{
 8002624:	b480      	push	{r7}
 8002626:	b087      	sub	sp, #28
 8002628:	af00      	add	r7, sp, #0
 800262a:	6078      	str	r0, [r7, #4]
 800262c:	6039      	str	r1, [r7, #0]
  uint32_t tmpccmrx;
  uint32_t tmpccer;
  uint32_t tmpcr2;

  /* Get the TIMx CCER register value */
  tmpccer = TIMx->CCER;
 800262e:	687b      	ldr	r3, [r7, #4]
 8002630:	6a1b      	ldr	r3, [r3, #32]
 8002632:	613b      	str	r3, [r7, #16]

  /* Disable the Channel 4: Reset the CC4E Bit */
  TIMx->CCER &= ~TIM_CCER_CC4E;
 8002634:	687b      	ldr	r3, [r7, #4]
 8002636:	6a1b      	ldr	r3, [r3, #32]
 8002638:	f423 5280 	bic.w	r2, r3, #4096	; 0x1000
 800263c:	687b      	ldr	r3, [r7, #4]
 800263e:	621a      	str	r2, [r3, #32]

  /* Get the TIMx CR2 register value */
  tmpcr2 =  TIMx->CR2;
 8002640:	687b      	ldr	r3, [r7, #4]
 8002642:	685b      	ldr	r3, [r3, #4]
 8002644:	617b      	str	r3, [r7, #20]

  /* Get the TIMx CCMR2 register value */
  tmpccmrx = TIMx->CCMR2;
 8002646:	687b      	ldr	r3, [r7, #4]
 8002648:	69db      	ldr	r3, [r3, #28]
 800264a:	60fb      	str	r3, [r7, #12]

  /* Reset the Output Compare mode and Capture/Compare selection Bits */
  tmpccmrx &= ~TIM_CCMR2_OC4M;
 800264c:	68fb      	ldr	r3, [r7, #12]
 800264e:	f423 43e0 	bic.w	r3, r3, #28672	; 0x7000
 8002652:	60fb      	str	r3, [r7, #12]
  tmpccmrx &= ~TIM_CCMR2_CC4S;
 8002654:	68fb      	ldr	r3, [r7, #12]
 8002656:	f423 7340 	bic.w	r3, r3, #768	; 0x300
 800265a:	60fb      	str	r3, [r7, #12]

  /* Select the Output Compare Mode */
  tmpccmrx |= (OC_Config->OCMode << 8U);
 800265c:	683b      	ldr	r3, [r7, #0]
 800265e:	681b      	ldr	r3, [r3, #0]
 8002660:	021b      	lsls	r3, r3, #8
 8002662:	68fa      	ldr	r2, [r7, #12]
 8002664:	4313      	orrs	r3, r2
 8002666:	60fb      	str	r3, [r7, #12]

  /* Reset the Output Polarity level */
  tmpccer &= ~TIM_CCER_CC4P;
 8002668:	693b      	ldr	r3, [r7, #16]
 800266a:	f423 5300 	bic.w	r3, r3, #8192	; 0x2000
 800266e:	613b      	str	r3, [r7, #16]
  /* Set the Output Compare Polarity */
  tmpccer |= (OC_Config->OCPolarity << 12U);
 8002670:	683b      	ldr	r3, [r7, #0]
 8002672:	689b      	ldr	r3, [r3, #8]
 8002674:	031b      	lsls	r3, r3, #12
 8002676:	693a      	ldr	r2, [r7, #16]
 8002678:	4313      	orrs	r3, r2
 800267a:	613b      	str	r3, [r7, #16]

  if (IS_TIM_BREAK_INSTANCE(TIMx))
 800267c:	687b      	ldr	r3, [r7, #4]
 800267e:	4a10      	ldr	r2, [pc, #64]	; (80026c0 <TIM_OC4_SetConfig+0x9c>)
 8002680:	4293      	cmp	r3, r2
 8002682:	d109      	bne.n	8002698 <TIM_OC4_SetConfig+0x74>
  {
    /* Check parameters */
    assert_param(IS_TIM_OCIDLE_STATE(OC_Config->OCIdleState));

    /* Reset the Output Compare IDLE State */
    tmpcr2 &= ~TIM_CR2_OIS4;
 8002684:	697b      	ldr	r3, [r7, #20]
 8002686:	f423 4380 	bic.w	r3, r3, #16384	; 0x4000
 800268a:	617b      	str	r3, [r7, #20]

    /* Set the Output Idle state */
    tmpcr2 |= (OC_Config->OCIdleState << 6U);
 800268c:	683b      	ldr	r3, [r7, #0]
 800268e:	695b      	ldr	r3, [r3, #20]
 8002690:	019b      	lsls	r3, r3, #6
 8002692:	697a      	ldr	r2, [r7, #20]
 8002694:	4313      	orrs	r3, r2
 8002696:	617b      	str	r3, [r7, #20]
  }

  /* Write to TIMx CR2 */
  TIMx->CR2 = tmpcr2;
 8002698:	687b      	ldr	r3, [r7, #4]
 800269a:	697a      	ldr	r2, [r7, #20]
 800269c:	605a      	str	r2, [r3, #4]

  /* Write to TIMx CCMR2 */
  TIMx->CCMR2 = tmpccmrx;
 800269e:	687b      	ldr	r3, [r7, #4]
 80026a0:	68fa      	ldr	r2, [r7, #12]
 80026a2:	61da      	str	r2, [r3, #28]

  /* Set the Capture Compare Register value */
  TIMx->CCR4 = OC_Config->Pulse;
 80026a4:	683b      	ldr	r3, [r7, #0]
 80026a6:	685a      	ldr	r2, [r3, #4]
 80026a8:	687b      	ldr	r3, [r7, #4]
 80026aa:	641a      	str	r2, [r3, #64]	; 0x40

  /* Write to TIMx CCER */
  TIMx->CCER = tmpccer;
 80026ac:	687b      	ldr	r3, [r7, #4]
 80026ae:	693a      	ldr	r2, [r7, #16]
 80026b0:	621a      	str	r2, [r3, #32]
}
 80026b2:	bf00      	nop
 80026b4:	371c      	adds	r7, #28
 80026b6:	46bd      	mov	sp, r7
 80026b8:	f85d 7b04 	ldr.w	r7, [sp], #4
 80026bc:	4770      	bx	lr
 80026be:	bf00      	nop
 80026c0:	40010000 	.word	0x40010000

080026c4 <TIM_TI1_ConfigInputStage>:
  * @param  TIM_ICFilter Specifies the Input Capture Filter.
  *          This parameter must be a value between 0x00 and 0x0F.
  * @retval None
  */
static void TIM_TI1_ConfigInputStage(TIM_TypeDef *TIMx, uint32_t TIM_ICPolarity, uint32_t TIM_ICFilter)
{
 80026c4:	b480      	push	{r7}
 80026c6:	b087      	sub	sp, #28
 80026c8:	af00      	add	r7, sp, #0
 80026ca:	60f8      	str	r0, [r7, #12]
 80026cc:	60b9      	str	r1, [r7, #8]
 80026ce:	607a      	str	r2, [r7, #4]
  uint32_t tmpccmr1;
  uint32_t tmpccer;

  /* Disable the Channel 1: Reset the CC1E Bit */
  tmpccer = TIMx->CCER;
 80026d0:	68fb      	ldr	r3, [r7, #12]
 80026d2:	6a1b      	ldr	r3, [r3, #32]
 80026d4:	617b      	str	r3, [r7, #20]
  TIMx->CCER &= ~TIM_CCER_CC1E;
 80026d6:	68fb      	ldr	r3, [r7, #12]
 80026d8:	6a1b      	ldr	r3, [r3, #32]
 80026da:	f023 0201 	bic.w	r2, r3, #1
 80026de:	68fb      	ldr	r3, [r7, #12]
 80026e0:	621a      	str	r2, [r3, #32]
  tmpccmr1 = TIMx->CCMR1;
 80026e2:	68fb      	ldr	r3, [r7, #12]
 80026e4:	699b      	ldr	r3, [r3, #24]
 80026e6:	613b      	str	r3, [r7, #16]

  /* Set the filter */
  tmpccmr1 &= ~TIM_CCMR1_IC1F;
 80026e8:	693b      	ldr	r3, [r7, #16]
 80026ea:	f023 03f0 	bic.w	r3, r3, #240	; 0xf0
 80026ee:	613b      	str	r3, [r7, #16]
  tmpccmr1 |= (TIM_ICFilter << 4U);
 80026f0:	687b      	ldr	r3, [r7, #4]
 80026f2:	011b      	lsls	r3, r3, #4
 80026f4:	693a      	ldr	r2, [r7, #16]
 80026f6:	4313      	orrs	r3, r2
 80026f8:	613b      	str	r3, [r7, #16]

  /* Select the Polarity and set the CC1E Bit */
  tmpccer &= ~(TIM_CCER_CC1P | TIM_CCER_CC1NP);
 80026fa:	697b      	ldr	r3, [r7, #20]
 80026fc:	f023 030a 	bic.w	r3, r3, #10
 8002700:	617b      	str	r3, [r7, #20]
  tmpccer |= TIM_ICPolarity;
 8002702:	697a      	ldr	r2, [r7, #20]
 8002704:	68bb      	ldr	r3, [r7, #8]
 8002706:	4313      	orrs	r3, r2
 8002708:	617b      	str	r3, [r7, #20]

  /* Write to TIMx CCMR1 and CCER registers */
  TIMx->CCMR1 = tmpccmr1;
 800270a:	68fb      	ldr	r3, [r7, #12]
 800270c:	693a      	ldr	r2, [r7, #16]
 800270e:	619a      	str	r2, [r3, #24]
  TIMx->CCER = tmpccer;
 8002710:	68fb      	ldr	r3, [r7, #12]
 8002712:	697a      	ldr	r2, [r7, #20]
 8002714:	621a      	str	r2, [r3, #32]
}
 8002716:	bf00      	nop
 8002718:	371c      	adds	r7, #28
 800271a:	46bd      	mov	sp, r7
 800271c:	f85d 7b04 	ldr.w	r7, [sp], #4
 8002720:	4770      	bx	lr

08002722 <TIM_TI2_ConfigInputStage>:
  * @param  TIM_ICFilter Specifies the Input Capture Filter.
  *          This parameter must be a value between 0x00 and 0x0F.
  * @retval None
  */
static void TIM_TI2_ConfigInputStage(TIM_TypeDef *TIMx, uint32_t TIM_ICPolarity, uint32_t TIM_ICFilter)
{
 8002722:	b480      	push	{r7}
 8002724:	b087      	sub	sp, #28
 8002726:	af00      	add	r7, sp, #0
 8002728:	60f8      	str	r0, [r7, #12]
 800272a:	60b9      	str	r1, [r7, #8]
 800272c:	607a      	str	r2, [r7, #4]
  uint32_t tmpccmr1;
  uint32_t tmpccer;

  /* Disable the Channel 2: Reset the CC2E Bit */
  tmpccer = TIMx->CCER;
 800272e:	68fb      	ldr	r3, [r7, #12]
 8002730:	6a1b      	ldr	r3, [r3, #32]
 8002732:	617b      	str	r3, [r7, #20]
  TIMx->CCER &= ~TIM_CCER_CC2E;
 8002734:	68fb      	ldr	r3, [r7, #12]
 8002736:	6a1b      	ldr	r3, [r3, #32]
 8002738:	f023 0210 	bic.w	r2, r3, #16
 800273c:	68fb      	ldr	r3, [r7, #12]
 800273e:	621a      	str	r2, [r3, #32]
  tmpccmr1 = TIMx->CCMR1;
 8002740:	68fb      	ldr	r3, [r7, #12]
 8002742:	699b      	ldr	r3, [r3, #24]
 8002744:	613b      	str	r3, [r7, #16]

  /* Set the filter */
  tmpccmr1 &= ~TIM_CCMR1_IC2F;
 8002746:	693b      	ldr	r3, [r7, #16]
 8002748:	f423 4370 	bic.w	r3, r3, #61440	; 0xf000
 800274c:	613b      	str	r3, [r7, #16]
  tmpccmr1 |= (TIM_ICFilter << 12U);
 800274e:	687b      	ldr	r3, [r7, #4]
 8002750:	031b      	lsls	r3, r3, #12
 8002752:	693a      	ldr	r2, [r7, #16]
 8002754:	4313      	orrs	r3, r2
 8002756:	613b      	str	r3, [r7, #16]

  /* Select the Polarity and set the CC2E Bit */
  tmpccer &= ~(TIM_CCER_CC2P | TIM_CCER_CC2NP);
 8002758:	697b      	ldr	r3, [r7, #20]
 800275a:	f023 03a0 	bic.w	r3, r3, #160	; 0xa0
 800275e:	617b      	str	r3, [r7, #20]
  tmpccer |= (TIM_ICPolarity << 4U);
 8002760:	68bb      	ldr	r3, [r7, #8]
 8002762:	011b      	lsls	r3, r3, #4
 8002764:	697a      	ldr	r2, [r7, #20]
 8002766:	4313      	orrs	r3, r2
 8002768:	617b      	str	r3, [r7, #20]

  /* Write to TIMx CCMR1 and CCER registers */
  TIMx->CCMR1 = tmpccmr1 ;
 800276a:	68fb      	ldr	r3, [r7, #12]
 800276c:	693a      	ldr	r2, [r7, #16]
 800276e:	619a      	str	r2, [r3, #24]
  TIMx->CCER = tmpccer;
 8002770:	68fb      	ldr	r3, [r7, #12]
 8002772:	697a      	ldr	r2, [r7, #20]
 8002774:	621a      	str	r2, [r3, #32]
}
 8002776:	bf00      	nop
 8002778:	371c      	adds	r7, #28
 800277a:	46bd      	mov	sp, r7
 800277c:	f85d 7b04 	ldr.w	r7, [sp], #4
 8002780:	4770      	bx	lr

08002782 <TIM_ITRx_SetConfig>:
  *            @arg TIM_TS_TI2FP2: Filtered Timer Input 2
  *            @arg TIM_TS_ETRF: External Trigger input
  * @retval None
  */
static void TIM_ITRx_SetConfig(TIM_TypeDef *TIMx, uint32_t InputTriggerSource)
{
 8002782:	b480      	push	{r7}
 8002784:	b085      	sub	sp, #20
 8002786:	af00      	add	r7, sp, #0
 8002788:	6078      	str	r0, [r7, #4]
 800278a:	6039      	str	r1, [r7, #0]
  uint32_t tmpsmcr;

  /* Get the TIMx SMCR register value */
  tmpsmcr = TIMx->SMCR;
 800278c:	687b      	ldr	r3, [r7, #4]
 800278e:	689b      	ldr	r3, [r3, #8]
 8002790:	60fb      	str	r3, [r7, #12]
  /* Reset the TS Bits */
  tmpsmcr &= ~TIM_SMCR_TS;
 8002792:	68fb      	ldr	r3, [r7, #12]
 8002794:	f023 0370 	bic.w	r3, r3, #112	; 0x70
 8002798:	60fb      	str	r3, [r7, #12]
  /* Set the Input Trigger source and the slave mode*/
  tmpsmcr |= (InputTriggerSource | TIM_SLAVEMODE_EXTERNAL1);
 800279a:	683a      	ldr	r2, [r7, #0]
 800279c:	68fb      	ldr	r3, [r7, #12]
 800279e:	4313      	orrs	r3, r2
 80027a0:	f043 0307 	orr.w	r3, r3, #7
 80027a4:	60fb      	str	r3, [r7, #12]
  /* Write to TIMx SMCR */
  TIMx->SMCR = tmpsmcr;
 80027a6:	687b      	ldr	r3, [r7, #4]
 80027a8:	68fa      	ldr	r2, [r7, #12]
 80027aa:	609a      	str	r2, [r3, #8]
}
 80027ac:	bf00      	nop
 80027ae:	3714      	adds	r7, #20
 80027b0:	46bd      	mov	sp, r7
 80027b2:	f85d 7b04 	ldr.w	r7, [sp], #4
 80027b6:	4770      	bx	lr

080027b8 <TIM_ETR_SetConfig>:
  *          This parameter must be a value between 0x00 and 0x0F
  * @retval None
  */
void TIM_ETR_SetConfig(TIM_TypeDef *TIMx, uint32_t TIM_ExtTRGPrescaler,
                       uint32_t TIM_ExtTRGPolarity, uint32_t ExtTRGFilter)
{
 80027b8:	b480      	push	{r7}
 80027ba:	b087      	sub	sp, #28
 80027bc:	af00      	add	r7, sp, #0
 80027be:	60f8      	str	r0, [r7, #12]
 80027c0:	60b9      	str	r1, [r7, #8]
 80027c2:	607a      	str	r2, [r7, #4]
 80027c4:	603b      	str	r3, [r7, #0]
  uint32_t tmpsmcr;

  tmpsmcr = TIMx->SMCR;
 80027c6:	68fb      	ldr	r3, [r7, #12]
 80027c8:	689b      	ldr	r3, [r3, #8]
 80027ca:	617b      	str	r3, [r7, #20]

  /* Reset the ETR Bits */
  tmpsmcr &= ~(TIM_SMCR_ETF | TIM_SMCR_ETPS | TIM_SMCR_ECE | TIM_SMCR_ETP);
 80027cc:	697b      	ldr	r3, [r7, #20]
 80027ce:	f423 437f 	bic.w	r3, r3, #65280	; 0xff00
 80027d2:	617b      	str	r3, [r7, #20]

  /* Set the Prescaler, the Filter value and the Polarity */
  tmpsmcr |= (uint32_t)(TIM_ExtTRGPrescaler | (TIM_ExtTRGPolarity | (ExtTRGFilter << 8U)));
 80027d4:	683b      	ldr	r3, [r7, #0]
 80027d6:	021a      	lsls	r2, r3, #8
 80027d8:	687b      	ldr	r3, [r7, #4]
 80027da:	431a      	orrs	r2, r3
 80027dc:	68bb      	ldr	r3, [r7, #8]
 80027de:	4313      	orrs	r3, r2
 80027e0:	697a      	ldr	r2, [r7, #20]
 80027e2:	4313      	orrs	r3, r2
 80027e4:	617b      	str	r3, [r7, #20]

  /* Write to TIMx SMCR */
  TIMx->SMCR = tmpsmcr;
 80027e6:	68fb      	ldr	r3, [r7, #12]
 80027e8:	697a      	ldr	r2, [r7, #20]
 80027ea:	609a      	str	r2, [r3, #8]
}
 80027ec:	bf00      	nop
 80027ee:	371c      	adds	r7, #28
 80027f0:	46bd      	mov	sp, r7
 80027f2:	f85d 7b04 	ldr.w	r7, [sp], #4
 80027f6:	4770      	bx	lr

080027f8 <TIM_CCxChannelCmd>:
  * @param  ChannelState specifies the TIM Channel CCxE bit new state.
  *          This parameter can be: TIM_CCx_ENABLE or TIM_CCx_DISABLE.
  * @retval None
  */
void TIM_CCxChannelCmd(TIM_TypeDef *TIMx, uint32_t Channel, uint32_t ChannelState)
{
 80027f8:	b480      	push	{r7}
 80027fa:	b087      	sub	sp, #28
 80027fc:	af00      	add	r7, sp, #0
 80027fe:	60f8      	str	r0, [r7, #12]
 8002800:	60b9      	str	r1, [r7, #8]
 8002802:	607a      	str	r2, [r7, #4]

  /* Check the parameters */
  assert_param(IS_TIM_CC1_INSTANCE(TIMx));
  assert_param(IS_TIM_CHANNELS(Channel));

  tmp = TIM_CCER_CC1E << (Channel & 0x1FU); /* 0x1FU = 31 bits max shift */
 8002804:	68bb      	ldr	r3, [r7, #8]
 8002806:	f003 031f 	and.w	r3, r3, #31
 800280a:	2201      	movs	r2, #1
 800280c:	fa02 f303 	lsl.w	r3, r2, r3
 8002810:	617b      	str	r3, [r7, #20]

  /* Reset the CCxE Bit */
  TIMx->CCER &= ~tmp;
 8002812:	68fb      	ldr	r3, [r7, #12]
 8002814:	6a1a      	ldr	r2, [r3, #32]
 8002816:	697b      	ldr	r3, [r7, #20]
 8002818:	43db      	mvns	r3, r3
 800281a:	401a      	ands	r2, r3
 800281c:	68fb      	ldr	r3, [r7, #12]
 800281e:	621a      	str	r2, [r3, #32]

  /* Set or reset the CCxE Bit */
  TIMx->CCER |= (uint32_t)(ChannelState << (Channel & 0x1FU)); /* 0x1FU = 31 bits max shift */
 8002820:	68fb      	ldr	r3, [r7, #12]
 8002822:	6a1a      	ldr	r2, [r3, #32]
 8002824:	68bb      	ldr	r3, [r7, #8]
 8002826:	f003 031f 	and.w	r3, r3, #31
 800282a:	6879      	ldr	r1, [r7, #4]
 800282c:	fa01 f303 	lsl.w	r3, r1, r3
 8002830:	431a      	orrs	r2, r3
 8002832:	68fb      	ldr	r3, [r7, #12]
 8002834:	621a      	str	r2, [r3, #32]
}
 8002836:	bf00      	nop
 8002838:	371c      	adds	r7, #28
 800283a:	46bd      	mov	sp, r7
 800283c:	f85d 7b04 	ldr.w	r7, [sp], #4
 8002840:	4770      	bx	lr
	...

08002844 <HAL_TIMEx_MasterConfigSynchronization>:
  *         mode.
  * @retval HAL status
  */
HAL_StatusTypeDef HAL_TIMEx_MasterConfigSynchronization(TIM_HandleTypeDef *htim,
                                                        const TIM_MasterConfigTypeDef *sMasterConfig)
{
 8002844:	b480      	push	{r7}
 8002846:	b085      	sub	sp, #20
 8002848:	af00      	add	r7, sp, #0
 800284a:	6078      	str	r0, [r7, #4]
 800284c:	6039      	str	r1, [r7, #0]
  assert_param(IS_TIM_MASTER_INSTANCE(htim->Instance));
  assert_param(IS_TIM_TRGO_SOURCE(sMasterConfig->MasterOutputTrigger));
  assert_param(IS_TIM_MSM_STATE(sMasterConfig->MasterSlaveMode));

  /* Check input state */
  __HAL_LOCK(htim);
 800284e:	687b      	ldr	r3, [r7, #4]
 8002850:	f893 303c 	ldrb.w	r3, [r3, #60]	; 0x3c
 8002854:	2b01      	cmp	r3, #1
 8002856:	d101      	bne.n	800285c <HAL_TIMEx_MasterConfigSynchronization+0x18>
 8002858:	2302      	movs	r3, #2
 800285a:	e050      	b.n	80028fe <HAL_TIMEx_MasterConfigSynchronization+0xba>
 800285c:	687b      	ldr	r3, [r7, #4]
 800285e:	2201      	movs	r2, #1
 8002860:	f883 203c 	strb.w	r2, [r3, #60]	; 0x3c

  /* Change the handler state */
  htim->State = HAL_TIM_STATE_BUSY;
 8002864:	687b      	ldr	r3, [r7, #4]
 8002866:	2202      	movs	r2, #2
 8002868:	f883 203d 	strb.w	r2, [r3, #61]	; 0x3d

  /* Get the TIMx CR2 register value */
  tmpcr2 = htim->Instance->CR2;
 800286c:	687b      	ldr	r3, [r7, #4]
 800286e:	681b      	ldr	r3, [r3, #0]
 8002870:	685b      	ldr	r3, [r3, #4]
 8002872:	60fb      	str	r3, [r7, #12]

  /* Get the TIMx SMCR register value */
  tmpsmcr = htim->Instance->SMCR;
 8002874:	687b      	ldr	r3, [r7, #4]
 8002876:	681b      	ldr	r3, [r3, #0]
 8002878:	689b      	ldr	r3, [r3, #8]
 800287a:	60bb      	str	r3, [r7, #8]

  /* Reset the MMS Bits */
  tmpcr2 &= ~TIM_CR2_MMS;
 800287c:	68fb      	ldr	r3, [r7, #12]
 800287e:	f023 0370 	bic.w	r3, r3, #112	; 0x70
 8002882:	60fb      	str	r3, [r7, #12]
  /* Select the TRGO source */
  tmpcr2 |=  sMasterConfig->MasterOutputTrigger;
 8002884:	683b      	ldr	r3, [r7, #0]
 8002886:	681b      	ldr	r3, [r3, #0]
 8002888:	68fa      	ldr	r2, [r7, #12]
 800288a:	4313      	orrs	r3, r2
 800288c:	60fb      	str	r3, [r7, #12]

  /* Update TIMx CR2 */
  htim->Instance->CR2 = tmpcr2;
 800288e:	687b      	ldr	r3, [r7, #4]
 8002890:	681b      	ldr	r3, [r3, #0]
 8002892:	68fa      	ldr	r2, [r7, #12]
 8002894:	605a      	str	r2, [r3, #4]

  if (IS_TIM_SLAVE_INSTANCE(htim->Instance))
 8002896:	687b      	ldr	r3, [r7, #4]
 8002898:	681b      	ldr	r3, [r3, #0]
 800289a:	4a1c      	ldr	r2, [pc, #112]	; (800290c <HAL_TIMEx_MasterConfigSynchronization+0xc8>)
 800289c:	4293      	cmp	r3, r2
 800289e:	d018      	beq.n	80028d2 <HAL_TIMEx_MasterConfigSynchronization+0x8e>
 80028a0:	687b      	ldr	r3, [r7, #4]
 80028a2:	681b      	ldr	r3, [r3, #0]
 80028a4:	f1b3 4f80 	cmp.w	r3, #1073741824	; 0x40000000
 80028a8:	d013      	beq.n	80028d2 <HAL_TIMEx_MasterConfigSynchronization+0x8e>
 80028aa:	687b      	ldr	r3, [r7, #4]
 80028ac:	681b      	ldr	r3, [r3, #0]
 80028ae:	4a18      	ldr	r2, [pc, #96]	; (8002910 <HAL_TIMEx_MasterConfigSynchronization+0xcc>)
 80028b0:	4293      	cmp	r3, r2
 80028b2:	d00e      	beq.n	80028d2 <HAL_TIMEx_MasterConfigSynchronization+0x8e>
 80028b4:	687b      	ldr	r3, [r7, #4]
 80028b6:	681b      	ldr	r3, [r3, #0]
 80028b8:	4a16      	ldr	r2, [pc, #88]	; (8002914 <HAL_TIMEx_MasterConfigSynchronization+0xd0>)
 80028ba:	4293      	cmp	r3, r2
 80028bc:	d009      	beq.n	80028d2 <HAL_TIMEx_MasterConfigSynchronization+0x8e>
 80028be:	687b      	ldr	r3, [r7, #4]
 80028c0:	681b      	ldr	r3, [r3, #0]
 80028c2:	4a15      	ldr	r2, [pc, #84]	; (8002918 <HAL_TIMEx_MasterConfigSynchronization+0xd4>)
 80028c4:	4293      	cmp	r3, r2
 80028c6:	d004      	beq.n	80028d2 <HAL_TIMEx_MasterConfigSynchronization+0x8e>
 80028c8:	687b      	ldr	r3, [r7, #4]
 80028ca:	681b      	ldr	r3, [r3, #0]
 80028cc:	4a13      	ldr	r2, [pc, #76]	; (800291c <HAL_TIMEx_MasterConfigSynchronization+0xd8>)
 80028ce:	4293      	cmp	r3, r2
 80028d0:	d10c      	bne.n	80028ec <HAL_TIMEx_MasterConfigSynchronization+0xa8>
  {
    /* Reset the MSM Bit */
    tmpsmcr &= ~TIM_SMCR_MSM;
 80028d2:	68bb      	ldr	r3, [r7, #8]
 80028d4:	f023 0380 	bic.w	r3, r3, #128	; 0x80
 80028d8:	60bb      	str	r3, [r7, #8]
    /* Set master mode */
    tmpsmcr |= sMasterConfig->MasterSlaveMode;
 80028da:	683b      	ldr	r3, [r7, #0]
 80028dc:	685b      	ldr	r3, [r3, #4]
 80028de:	68ba      	ldr	r2, [r7, #8]
 80028e0:	4313      	orrs	r3, r2
 80028e2:	60bb      	str	r3, [r7, #8]

    /* Update TIMx SMCR */
    htim->Instance->SMCR = tmpsmcr;
 80028e4:	687b      	ldr	r3, [r7, #4]
 80028e6:	681b      	ldr	r3, [r3, #0]
 80028e8:	68ba      	ldr	r2, [r7, #8]
 80028ea:	609a      	str	r2, [r3, #8]
  }

  /* Change the htim state */
  htim->State = HAL_TIM_STATE_READY;
 80028ec:	687b      	ldr	r3, [r7, #4]
 80028ee:	2201      	movs	r2, #1
 80028f0:	f883 203d 	strb.w	r2, [r3, #61]	; 0x3d

  __HAL_UNLOCK(htim);
 80028f4:	687b      	ldr	r3, [r7, #4]
 80028f6:	2200      	movs	r2, #0
 80028f8:	f883 203c 	strb.w	r2, [r3, #60]	; 0x3c

  return HAL_OK;
 80028fc:	2300      	movs	r3, #0
}
 80028fe:	4618      	mov	r0, r3
 8002900:	3714      	adds	r7, #20
 8002902:	46bd      	mov	sp, r7
 8002904:	f85d 7b04 	ldr.w	r7, [sp], #4
 8002908:	4770      	bx	lr
 800290a:	bf00      	nop
 800290c:	40010000 	.word	0x40010000
 8002910:	40000400 	.word	0x40000400
 8002914:	40000800 	.word	0x40000800
 8002918:	40000c00 	.word	0x40000c00
 800291c:	40014000 	.word	0x40014000

08002920 <HAL_UART_Init>:
  * @param  huart  Pointer to a UART_HandleTypeDef structure that contains
  *                the configuration information for the specified UART module.
  * @retval HAL status
  */
HAL_StatusTypeDef HAL_UART_Init(UART_HandleTypeDef *huart)
{
 8002920:	b580      	push	{r7, lr}
 8002922:	b082      	sub	sp, #8
 8002924:	af00      	add	r7, sp, #0
 8002926:	6078      	str	r0, [r7, #4]
  /* Check the UART handle allocation */
  if (huart == NULL)
 8002928:	687b      	ldr	r3, [r7, #4]
 800292a:	2b00      	cmp	r3, #0
 800292c:	d101      	bne.n	8002932 <HAL_UART_Init+0x12>
  {
    return HAL_ERROR;
 800292e:	2301      	movs	r3, #1
 8002930:	e042      	b.n	80029b8 <HAL_UART_Init+0x98>
    assert_param(IS_UART_INSTANCE(huart->Instance));
  }
  assert_param(IS_UART_WORD_LENGTH(huart->Init.WordLength));
  assert_param(IS_UART_OVERSAMPLING(huart->Init.OverSampling));

  if (huart->gState == HAL_UART_STATE_RESET)
 8002932:	687b      	ldr	r3, [r7, #4]
 8002934:	f893 3041 	ldrb.w	r3, [r3, #65]	; 0x41
 8002938:	b2db      	uxtb	r3, r3
 800293a:	2b00      	cmp	r3, #0
 800293c:	d106      	bne.n	800294c <HAL_UART_Init+0x2c>
  {
    /* Allocate lock resource and initialize it */
    huart->Lock = HAL_UNLOCKED;
 800293e:	687b      	ldr	r3, [r7, #4]
 8002940:	2200      	movs	r2, #0
 8002942:	f883 2040 	strb.w	r2, [r3, #64]	; 0x40

    /* Init the low level hardware */
    huart->MspInitCallback(huart);
#else
    /* Init the low level hardware : GPIO, CLOCK */
    HAL_UART_MspInit(huart);
 8002946:	6878      	ldr	r0, [r7, #4]
 8002948:	f7fe f8c0 	bl	8000acc <HAL_UART_MspInit>
#endif /* (USE_HAL_UART_REGISTER_CALLBACKS) */
  }

  huart->gState = HAL_UART_STATE_BUSY;
 800294c:	687b      	ldr	r3, [r7, #4]
 800294e:	2224      	movs	r2, #36	; 0x24
 8002950:	f883 2041 	strb.w	r2, [r3, #65]	; 0x41

  /* Disable the peripheral */
  __HAL_UART_DISABLE(huart);
 8002954:	687b      	ldr	r3, [r7, #4]
 8002956:	681b      	ldr	r3, [r3, #0]
 8002958:	68da      	ldr	r2, [r3, #12]
 800295a:	687b      	ldr	r3, [r7, #4]
 800295c:	681b      	ldr	r3, [r3, #0]
 800295e:	f422 5200 	bic.w	r2, r2, #8192	; 0x2000
 8002962:	60da      	str	r2, [r3, #12]

  /* Set the UART Communication parameters */
  UART_SetConfig(huart);
 8002964:	6878      	ldr	r0, [r7, #4]
 8002966:	f000 fa09 	bl	8002d7c <UART_SetConfig>

  /* In asynchronous mode, the following bits must be kept cleared:
     - LINEN and CLKEN bits in the USART_CR2 register,
     - SCEN, HDSEL and IREN  bits in the USART_CR3 register.*/
  CLEAR_BIT(huart->Instance->CR2, (USART_CR2_LINEN | USART_CR2_CLKEN));
 800296a:	687b      	ldr	r3, [r7, #4]
 800296c:	681b      	ldr	r3, [r3, #0]
 800296e:	691a      	ldr	r2, [r3, #16]
 8002970:	687b      	ldr	r3, [r7, #4]
 8002972:	681b      	ldr	r3, [r3, #0]
 8002974:	f422 4290 	bic.w	r2, r2, #18432	; 0x4800
 8002978:	611a      	str	r2, [r3, #16]
  CLEAR_BIT(huart->Instance->CR3, (USART_CR3_SCEN | USART_CR3_HDSEL | USART_CR3_IREN));
 800297a:	687b      	ldr	r3, [r7, #4]
 800297c:	681b      	ldr	r3, [r3, #0]
 800297e:	695a      	ldr	r2, [r3, #20]
 8002980:	687b      	ldr	r3, [r7, #4]
 8002982:	681b      	ldr	r3, [r3, #0]
 8002984:	f022 022a 	bic.w	r2, r2, #42	; 0x2a
 8002988:	615a      	str	r2, [r3, #20]

  /* Enable the peripheral */
  __HAL_UART_ENABLE(huart);
 800298a:	687b      	ldr	r3, [r7, #4]
 800298c:	681b      	ldr	r3, [r3, #0]
 800298e:	68da      	ldr	r2, [r3, #12]
 8002990:	687b      	ldr	r3, [r7, #4]
 8002992:	681b      	ldr	r3, [r3, #0]
 8002994:	f442 5200 	orr.w	r2, r2, #8192	; 0x2000
 8002998:	60da      	str	r2, [r3, #12]

  /* Initialize the UART state */
  huart->ErrorCode = HAL_UART_ERROR_NONE;
 800299a:	687b      	ldr	r3, [r7, #4]
 800299c:	2200      	movs	r2, #0
 800299e:	645a      	str	r2, [r3, #68]	; 0x44
  huart->gState = HAL_UART_STATE_READY;
 80029a0:	687b      	ldr	r3, [r7, #4]
 80029a2:	2220      	movs	r2, #32
 80029a4:	f883 2041 	strb.w	r2, [r3, #65]	; 0x41
  huart->RxState = HAL_UART_STATE_READY;
 80029a8:	687b      	ldr	r3, [r7, #4]
 80029aa:	2220      	movs	r2, #32
 80029ac:	f883 2042 	strb.w	r2, [r3, #66]	; 0x42
  huart->RxEventType = HAL_UART_RXEVENT_TC;
 80029b0:	687b      	ldr	r3, [r7, #4]
 80029b2:	2200      	movs	r2, #0
 80029b4:	635a      	str	r2, [r3, #52]	; 0x34

  return HAL_OK;
 80029b6:	2300      	movs	r3, #0
}
 80029b8:	4618      	mov	r0, r3
 80029ba:	3708      	adds	r7, #8
 80029bc:	46bd      	mov	sp, r7
 80029be:	bd80      	pop	{r7, pc}

080029c0 <HAL_UART_Transmit>:
  * @param  Size  Amount of data elements (u8 or u16) to be sent
  * @param  Timeout Timeout duration
  * @retval HAL status
  */
HAL_StatusTypeDef HAL_UART_Transmit(UART_HandleTypeDef *huart, const uint8_t *pData, uint16_t Size, uint32_t Timeout)
{
 80029c0:	b580      	push	{r7, lr}
 80029c2:	b08a      	sub	sp, #40	; 0x28
 80029c4:	af02      	add	r7, sp, #8
 80029c6:	60f8      	str	r0, [r7, #12]
 80029c8:	60b9      	str	r1, [r7, #8]
 80029ca:	603b      	str	r3, [r7, #0]
 80029cc:	4613      	mov	r3, r2
 80029ce:	80fb      	strh	r3, [r7, #6]
  const uint8_t  *pdata8bits;
  const uint16_t *pdata16bits;
  uint32_t tickstart = 0U;
 80029d0:	2300      	movs	r3, #0
 80029d2:	617b      	str	r3, [r7, #20]

  /* Check that a Tx process is not already ongoing */
  if (huart->gState == HAL_UART_STATE_READY)
 80029d4:	68fb      	ldr	r3, [r7, #12]
 80029d6:	f893 3041 	ldrb.w	r3, [r3, #65]	; 0x41
 80029da:	b2db      	uxtb	r3, r3
 80029dc:	2b20      	cmp	r3, #32
 80029de:	d175      	bne.n	8002acc <HAL_UART_Transmit+0x10c>
  {
    if ((pData == NULL) || (Size == 0U))
 80029e0:	68bb      	ldr	r3, [r7, #8]
 80029e2:	2b00      	cmp	r3, #0
 80029e4:	d002      	beq.n	80029ec <HAL_UART_Transmit+0x2c>
 80029e6:	88fb      	ldrh	r3, [r7, #6]
 80029e8:	2b00      	cmp	r3, #0
 80029ea:	d101      	bne.n	80029f0 <HAL_UART_Transmit+0x30>
    {
      return  HAL_ERROR;
 80029ec:	2301      	movs	r3, #1
 80029ee:	e06e      	b.n	8002ace <HAL_UART_Transmit+0x10e>
    }

    huart->ErrorCode = HAL_UART_ERROR_NONE;
 80029f0:	68fb      	ldr	r3, [r7, #12]
 80029f2:	2200      	movs	r2, #0
 80029f4:	645a      	str	r2, [r3, #68]	; 0x44
    huart->gState = HAL_UART_STATE_BUSY_TX;
 80029f6:	68fb      	ldr	r3, [r7, #12]
 80029f8:	2221      	movs	r2, #33	; 0x21
 80029fa:	f883 2041 	strb.w	r2, [r3, #65]	; 0x41

    /* Init tickstart for timeout management */
    tickstart = HAL_GetTick();
 80029fe:	f7fe fa1d 	bl	8000e3c <HAL_GetTick>
 8002a02:	6178      	str	r0, [r7, #20]

    huart->TxXferSize = Size;
 8002a04:	68fb      	ldr	r3, [r7, #12]
 8002a06:	88fa      	ldrh	r2, [r7, #6]
 8002a08:	849a      	strh	r2, [r3, #36]	; 0x24
    huart->TxXferCount = Size;
 8002a0a:	68fb      	ldr	r3, [r7, #12]
 8002a0c:	88fa      	ldrh	r2, [r7, #6]
 8002a0e:	84da      	strh	r2, [r3, #38]	; 0x26

    /* In case of 9bits/No Parity transfer, pData needs to be handled as a uint16_t pointer */
    if ((huart->Init.WordLength == UART_WORDLENGTH_9B) && (huart->Init.Parity == UART_PARITY_NONE))
 8002a10:	68fb      	ldr	r3, [r7, #12]
 8002a12:	689b      	ldr	r3, [r3, #8]
 8002a14:	f5b3 5f80 	cmp.w	r3, #4096	; 0x1000
 8002a18:	d108      	bne.n	8002a2c <HAL_UART_Transmit+0x6c>
 8002a1a:	68fb      	ldr	r3, [r7, #12]
 8002a1c:	691b      	ldr	r3, [r3, #16]
 8002a1e:	2b00      	cmp	r3, #0
 8002a20:	d104      	bne.n	8002a2c <HAL_UART_Transmit+0x6c>
    {
      pdata8bits  = NULL;
 8002a22:	2300      	movs	r3, #0
 8002a24:	61fb      	str	r3, [r7, #28]
      pdata16bits = (const uint16_t *) pData;
 8002a26:	68bb      	ldr	r3, [r7, #8]
 8002a28:	61bb      	str	r3, [r7, #24]
 8002a2a:	e003      	b.n	8002a34 <HAL_UART_Transmit+0x74>
    }
    else
    {
      pdata8bits  = pData;
 8002a2c:	68bb      	ldr	r3, [r7, #8]
 8002a2e:	61fb      	str	r3, [r7, #28]
      pdata16bits = NULL;
 8002a30:	2300      	movs	r3, #0
 8002a32:	61bb      	str	r3, [r7, #24]
    }

    while (huart->TxXferCount > 0U)
 8002a34:	e02e      	b.n	8002a94 <HAL_UART_Transmit+0xd4>
    {
      if (UART_WaitOnFlagUntilTimeout(huart, UART_FLAG_TXE, RESET, tickstart, Timeout) != HAL_OK)
 8002a36:	683b      	ldr	r3, [r7, #0]
 8002a38:	9300      	str	r3, [sp, #0]
 8002a3a:	697b      	ldr	r3, [r7, #20]
 8002a3c:	2200      	movs	r2, #0
 8002a3e:	2180      	movs	r1, #128	; 0x80
 8002a40:	68f8      	ldr	r0, [r7, #12]
 8002a42:	f000 f8df 	bl	8002c04 <UART_WaitOnFlagUntilTimeout>
 8002a46:	4603      	mov	r3, r0
 8002a48:	2b00      	cmp	r3, #0
 8002a4a:	d005      	beq.n	8002a58 <HAL_UART_Transmit+0x98>
      {
        huart->gState = HAL_UART_STATE_READY;
 8002a4c:	68fb      	ldr	r3, [r7, #12]
 8002a4e:	2220      	movs	r2, #32
 8002a50:	f883 2041 	strb.w	r2, [r3, #65]	; 0x41

        return HAL_TIMEOUT;
 8002a54:	2303      	movs	r3, #3
 8002a56:	e03a      	b.n	8002ace <HAL_UART_Transmit+0x10e>
      }
      if (pdata8bits == NULL)
 8002a58:	69fb      	ldr	r3, [r7, #28]
 8002a5a:	2b00      	cmp	r3, #0
 8002a5c:	d10b      	bne.n	8002a76 <HAL_UART_Transmit+0xb6>
      {
        huart->Instance->DR = (uint16_t)(*pdata16bits & 0x01FFU);
 8002a5e:	69bb      	ldr	r3, [r7, #24]
 8002a60:	881b      	ldrh	r3, [r3, #0]
 8002a62:	461a      	mov	r2, r3
 8002a64:	68fb      	ldr	r3, [r7, #12]
 8002a66:	681b      	ldr	r3, [r3, #0]
 8002a68:	f3c2 0208 	ubfx	r2, r2, #0, #9
 8002a6c:	605a      	str	r2, [r3, #4]
        pdata16bits++;
 8002a6e:	69bb      	ldr	r3, [r7, #24]
 8002a70:	3302      	adds	r3, #2
 8002a72:	61bb      	str	r3, [r7, #24]
 8002a74:	e007      	b.n	8002a86 <HAL_UART_Transmit+0xc6>
      }
      else
      {
        huart->Instance->DR = (uint8_t)(*pdata8bits & 0xFFU);
 8002a76:	69fb      	ldr	r3, [r7, #28]
 8002a78:	781a      	ldrb	r2, [r3, #0]
 8002a7a:	68fb      	ldr	r3, [r7, #12]
 8002a7c:	681b      	ldr	r3, [r3, #0]
 8002a7e:	605a      	str	r2, [r3, #4]
        pdata8bits++;
 8002a80:	69fb      	ldr	r3, [r7, #28]
 8002a82:	3301      	adds	r3, #1
 8002a84:	61fb      	str	r3, [r7, #28]
      }
      huart->TxXferCount--;
 8002a86:	68fb      	ldr	r3, [r7, #12]
 8002a88:	8cdb      	ldrh	r3, [r3, #38]	; 0x26
 8002a8a:	b29b      	uxth	r3, r3
 8002a8c:	3b01      	subs	r3, #1
 8002a8e:	b29a      	uxth	r2, r3
 8002a90:	68fb      	ldr	r3, [r7, #12]
 8002a92:	84da      	strh	r2, [r3, #38]	; 0x26
    while (huart->TxXferCount > 0U)
 8002a94:	68fb      	ldr	r3, [r7, #12]
 8002a96:	8cdb      	ldrh	r3, [r3, #38]	; 0x26
 8002a98:	b29b      	uxth	r3, r3
 8002a9a:	2b00      	cmp	r3, #0
 8002a9c:	d1cb      	bne.n	8002a36 <HAL_UART_Transmit+0x76>
    }

    if (UART_WaitOnFlagUntilTimeout(huart, UART_FLAG_TC, RESET, tickstart, Timeout) != HAL_OK)
 8002a9e:	683b      	ldr	r3, [r7, #0]
 8002aa0:	9300      	str	r3, [sp, #0]
 8002aa2:	697b      	ldr	r3, [r7, #20]
 8002aa4:	2200      	movs	r2, #0
 8002aa6:	2140      	movs	r1, #64	; 0x40
 8002aa8:	68f8      	ldr	r0, [r7, #12]
 8002aaa:	f000 f8ab 	bl	8002c04 <UART_WaitOnFlagUntilTimeout>
 8002aae:	4603      	mov	r3, r0
 8002ab0:	2b00      	cmp	r3, #0
 8002ab2:	d005      	beq.n	8002ac0 <HAL_UART_Transmit+0x100>
    {
      huart->gState = HAL_UART_STATE_READY;
 8002ab4:	68fb      	ldr	r3, [r7, #12]
 8002ab6:	2220      	movs	r2, #32
 8002ab8:	f883 2041 	strb.w	r2, [r3, #65]	; 0x41

      return HAL_TIMEOUT;
 8002abc:	2303      	movs	r3, #3
 8002abe:	e006      	b.n	8002ace <HAL_UART_Transmit+0x10e>
    }

    /* At end of Tx process, restore huart->gState to Ready */
    huart->gState = HAL_UART_STATE_READY;
 8002ac0:	68fb      	ldr	r3, [r7, #12]
 8002ac2:	2220      	movs	r2, #32
 8002ac4:	f883 2041 	strb.w	r2, [r3, #65]	; 0x41

    return HAL_OK;
 8002ac8:	2300      	movs	r3, #0
 8002aca:	e000      	b.n	8002ace <HAL_UART_Transmit+0x10e>
  }
  else
  {
    return HAL_BUSY;
 8002acc:	2302      	movs	r3, #2
  }
}
 8002ace:	4618      	mov	r0, r3
 8002ad0:	3720      	adds	r7, #32
 8002ad2:	46bd      	mov	sp, r7
 8002ad4:	bd80      	pop	{r7, pc}

08002ad6 <HAL_UART_Receive>:
  * @param  Size  Amount of data elements (u8 or u16) to be received.
  * @param  Timeout Timeout duration
  * @retval HAL status
  */
HAL_StatusTypeDef HAL_UART_Receive(UART_HandleTypeDef *huart, uint8_t *pData, uint16_t Size, uint32_t Timeout)
{
 8002ad6:	b580      	push	{r7, lr}
 8002ad8:	b08a      	sub	sp, #40	; 0x28
 8002ada:	af02      	add	r7, sp, #8
 8002adc:	60f8      	str	r0, [r7, #12]
 8002ade:	60b9      	str	r1, [r7, #8]
 8002ae0:	603b      	str	r3, [r7, #0]
 8002ae2:	4613      	mov	r3, r2
 8002ae4:	80fb      	strh	r3, [r7, #6]
  uint8_t  *pdata8bits;
  uint16_t *pdata16bits;
  uint32_t tickstart = 0U;
 8002ae6:	2300      	movs	r3, #0
 8002ae8:	617b      	str	r3, [r7, #20]

  /* Check that a Rx process is not already ongoing */
  if (huart->RxState == HAL_UART_STATE_READY)
 8002aea:	68fb      	ldr	r3, [r7, #12]
 8002aec:	f893 3042 	ldrb.w	r3, [r3, #66]	; 0x42
 8002af0:	b2db      	uxtb	r3, r3
 8002af2:	2b20      	cmp	r3, #32
 8002af4:	f040 8081 	bne.w	8002bfa <HAL_UART_Receive+0x124>
  {
    if ((pData == NULL) || (Size == 0U))
 8002af8:	68bb      	ldr	r3, [r7, #8]
 8002afa:	2b00      	cmp	r3, #0
 8002afc:	d002      	beq.n	8002b04 <HAL_UART_Receive+0x2e>
 8002afe:	88fb      	ldrh	r3, [r7, #6]
 8002b00:	2b00      	cmp	r3, #0
 8002b02:	d101      	bne.n	8002b08 <HAL_UART_Receive+0x32>
    {
      return  HAL_ERROR;
 8002b04:	2301      	movs	r3, #1
 8002b06:	e079      	b.n	8002bfc <HAL_UART_Receive+0x126>
    }

    huart->ErrorCode = HAL_UART_ERROR_NONE;
 8002b08:	68fb      	ldr	r3, [r7, #12]
 8002b0a:	2200      	movs	r2, #0
 8002b0c:	645a      	str	r2, [r3, #68]	; 0x44
    huart->RxState = HAL_UART_STATE_BUSY_RX;
 8002b0e:	68fb      	ldr	r3, [r7, #12]
 8002b10:	2222      	movs	r2, #34	; 0x22
 8002b12:	f883 2042 	strb.w	r2, [r3, #66]	; 0x42
    huart->ReceptionType = HAL_UART_RECEPTION_STANDARD;
 8002b16:	68fb      	ldr	r3, [r7, #12]
 8002b18:	2200      	movs	r2, #0
 8002b1a:	631a      	str	r2, [r3, #48]	; 0x30

    /* Init tickstart for timeout management */
    tickstart = HAL_GetTick();
 8002b1c:	f7fe f98e 	bl	8000e3c <HAL_GetTick>
 8002b20:	6178      	str	r0, [r7, #20]

    huart->RxXferSize = Size;
 8002b22:	68fb      	ldr	r3, [r7, #12]
 8002b24:	88fa      	ldrh	r2, [r7, #6]
 8002b26:	859a      	strh	r2, [r3, #44]	; 0x2c
    huart->RxXferCount = Size;
 8002b28:	68fb      	ldr	r3, [r7, #12]
 8002b2a:	88fa      	ldrh	r2, [r7, #6]
 8002b2c:	85da      	strh	r2, [r3, #46]	; 0x2e

    /* In case of 9bits/No Parity transfer, pRxData needs to be handled as a uint16_t pointer */
    if ((huart->Init.WordLength == UART_WORDLENGTH_9B) && (huart->Init.Parity == UART_PARITY_NONE))
 8002b2e:	68fb      	ldr	r3, [r7, #12]
 8002b30:	689b      	ldr	r3, [r3, #8]
 8002b32:	f5b3 5f80 	cmp.w	r3, #4096	; 0x1000
 8002b36:	d108      	bne.n	8002b4a <HAL_UART_Receive+0x74>
 8002b38:	68fb      	ldr	r3, [r7, #12]
 8002b3a:	691b      	ldr	r3, [r3, #16]
 8002b3c:	2b00      	cmp	r3, #0
 8002b3e:	d104      	bne.n	8002b4a <HAL_UART_Receive+0x74>
    {
      pdata8bits  = NULL;
 8002b40:	2300      	movs	r3, #0
 8002b42:	61fb      	str	r3, [r7, #28]
      pdata16bits = (uint16_t *) pData;
 8002b44:	68bb      	ldr	r3, [r7, #8]
 8002b46:	61bb      	str	r3, [r7, #24]
 8002b48:	e003      	b.n	8002b52 <HAL_UART_Receive+0x7c>
    }
    else
    {
      pdata8bits  = pData;
 8002b4a:	68bb      	ldr	r3, [r7, #8]
 8002b4c:	61fb      	str	r3, [r7, #28]
      pdata16bits = NULL;
 8002b4e:	2300      	movs	r3, #0
 8002b50:	61bb      	str	r3, [r7, #24]
    }

    /* Check the remain data to be received */
    while (huart->RxXferCount > 0U)
 8002b52:	e047      	b.n	8002be4 <HAL_UART_Receive+0x10e>
    {
      if (UART_WaitOnFlagUntilTimeout(huart, UART_FLAG_RXNE, RESET, tickstart, Timeout) != HAL_OK)
 8002b54:	683b      	ldr	r3, [r7, #0]
 8002b56:	9300      	str	r3, [sp, #0]
 8002b58:	697b      	ldr	r3, [r7, #20]
 8002b5a:	2200      	movs	r2, #0
 8002b5c:	2120      	movs	r1, #32
 8002b5e:	68f8      	ldr	r0, [r7, #12]
 8002b60:	f000 f850 	bl	8002c04 <UART_WaitOnFlagUntilTimeout>
 8002b64:	4603      	mov	r3, r0
 8002b66:	2b00      	cmp	r3, #0
 8002b68:	d005      	beq.n	8002b76 <HAL_UART_Receive+0xa0>
      {
        huart->RxState = HAL_UART_STATE_READY;
 8002b6a:	68fb      	ldr	r3, [r7, #12]
 8002b6c:	2220      	movs	r2, #32
 8002b6e:	f883 2042 	strb.w	r2, [r3, #66]	; 0x42

        return HAL_TIMEOUT;
 8002b72:	2303      	movs	r3, #3
 8002b74:	e042      	b.n	8002bfc <HAL_UART_Receive+0x126>
      }
      if (pdata8bits == NULL)
 8002b76:	69fb      	ldr	r3, [r7, #28]
 8002b78:	2b00      	cmp	r3, #0
 8002b7a:	d10c      	bne.n	8002b96 <HAL_UART_Receive+0xc0>
      {
        *pdata16bits = (uint16_t)(huart->Instance->DR & 0x01FF);
 8002b7c:	68fb      	ldr	r3, [r7, #12]
 8002b7e:	681b      	ldr	r3, [r3, #0]
 8002b80:	685b      	ldr	r3, [r3, #4]
 8002b82:	b29b      	uxth	r3, r3
 8002b84:	f3c3 0308 	ubfx	r3, r3, #0, #9
 8002b88:	b29a      	uxth	r2, r3
 8002b8a:	69bb      	ldr	r3, [r7, #24]
 8002b8c:	801a      	strh	r2, [r3, #0]
        pdata16bits++;
 8002b8e:	69bb      	ldr	r3, [r7, #24]
 8002b90:	3302      	adds	r3, #2
 8002b92:	61bb      	str	r3, [r7, #24]
 8002b94:	e01f      	b.n	8002bd6 <HAL_UART_Receive+0x100>
      }
      else
      {
        if ((huart->Init.WordLength == UART_WORDLENGTH_9B) || ((huart->Init.WordLength == UART_WORDLENGTH_8B) && (huart->Init.Parity == UART_PARITY_NONE)))
 8002b96:	68fb      	ldr	r3, [r7, #12]
 8002b98:	689b      	ldr	r3, [r3, #8]
 8002b9a:	f5b3 5f80 	cmp.w	r3, #4096	; 0x1000
 8002b9e:	d007      	beq.n	8002bb0 <HAL_UART_Receive+0xda>
 8002ba0:	68fb      	ldr	r3, [r7, #12]
 8002ba2:	689b      	ldr	r3, [r3, #8]
 8002ba4:	2b00      	cmp	r3, #0
 8002ba6:	d10a      	bne.n	8002bbe <HAL_UART_Receive+0xe8>
 8002ba8:	68fb      	ldr	r3, [r7, #12]
 8002baa:	691b      	ldr	r3, [r3, #16]
 8002bac:	2b00      	cmp	r3, #0
 8002bae:	d106      	bne.n	8002bbe <HAL_UART_Receive+0xe8>
        {
          *pdata8bits = (uint8_t)(huart->Instance->DR & (uint8_t)0x00FF);
 8002bb0:	68fb      	ldr	r3, [r7, #12]
 8002bb2:	681b      	ldr	r3, [r3, #0]
 8002bb4:	685b      	ldr	r3, [r3, #4]
 8002bb6:	b2da      	uxtb	r2, r3
 8002bb8:	69fb      	ldr	r3, [r7, #28]
 8002bba:	701a      	strb	r2, [r3, #0]
 8002bbc:	e008      	b.n	8002bd0 <HAL_UART_Receive+0xfa>
        }
        else
        {
          *pdata8bits = (uint8_t)(huart->Instance->DR & (uint8_t)0x007F);
 8002bbe:	68fb      	ldr	r3, [r7, #12]
 8002bc0:	681b      	ldr	r3, [r3, #0]
 8002bc2:	685b      	ldr	r3, [r3, #4]
 8002bc4:	b2db      	uxtb	r3, r3
 8002bc6:	f003 037f 	and.w	r3, r3, #127	; 0x7f
 8002bca:	b2da      	uxtb	r2, r3
 8002bcc:	69fb      	ldr	r3, [r7, #28]
 8002bce:	701a      	strb	r2, [r3, #0]
        }
        pdata8bits++;
 8002bd0:	69fb      	ldr	r3, [r7, #28]
 8002bd2:	3301      	adds	r3, #1
 8002bd4:	61fb      	str	r3, [r7, #28]
      }
      huart->RxXferCount--;
 8002bd6:	68fb      	ldr	r3, [r7, #12]
 8002bd8:	8ddb      	ldrh	r3, [r3, #46]	; 0x2e
 8002bda:	b29b      	uxth	r3, r3
 8002bdc:	3b01      	subs	r3, #1
 8002bde:	b29a      	uxth	r2, r3
 8002be0:	68fb      	ldr	r3, [r7, #12]
 8002be2:	85da      	strh	r2, [r3, #46]	; 0x2e
    while (huart->RxXferCount > 0U)
 8002be4:	68fb      	ldr	r3, [r7, #12]
 8002be6:	8ddb      	ldrh	r3, [r3, #46]	; 0x2e
 8002be8:	b29b      	uxth	r3, r3
 8002bea:	2b00      	cmp	r3, #0
 8002bec:	d1b2      	bne.n	8002b54 <HAL_UART_Receive+0x7e>
    }

    /* At end of Rx process, restore huart->RxState to Ready */
    huart->RxState = HAL_UART_STATE_READY;
 8002bee:	68fb      	ldr	r3, [r7, #12]
 8002bf0:	2220      	movs	r2, #32
 8002bf2:	f883 2042 	strb.w	r2, [r3, #66]	; 0x42

    return HAL_OK;
 8002bf6:	2300      	movs	r3, #0
 8002bf8:	e000      	b.n	8002bfc <HAL_UART_Receive+0x126>
  }
  else
  {
    return HAL_BUSY;
 8002bfa:	2302      	movs	r3, #2
  }
}
 8002bfc:	4618      	mov	r0, r3
 8002bfe:	3720      	adds	r7, #32
 8002c00:	46bd      	mov	sp, r7
 8002c02:	bd80      	pop	{r7, pc}

08002c04 <UART_WaitOnFlagUntilTimeout>:
  * @param  Timeout Timeout duration
  * @retval HAL status
  */
static HAL_StatusTypeDef UART_WaitOnFlagUntilTimeout(UART_HandleTypeDef *huart, uint32_t Flag, FlagStatus Status,
                                                     uint32_t Tickstart, uint32_t Timeout)
{
 8002c04:	b580      	push	{r7, lr}
 8002c06:	b086      	sub	sp, #24
 8002c08:	af00      	add	r7, sp, #0
 8002c0a:	60f8      	str	r0, [r7, #12]
 8002c0c:	60b9      	str	r1, [r7, #8]
 8002c0e:	603b      	str	r3, [r7, #0]
 8002c10:	4613      	mov	r3, r2
 8002c12:	71fb      	strb	r3, [r7, #7]
  /* Wait until flag is set */
  while ((__HAL_UART_GET_FLAG(huart, Flag) ? SET : RESET) == Status)
 8002c14:	e03b      	b.n	8002c8e <UART_WaitOnFlagUntilTimeout+0x8a>
  {
    /* Check for the Timeout */
    if (Timeout != HAL_MAX_DELAY)
 8002c16:	6a3b      	ldr	r3, [r7, #32]
 8002c18:	f1b3 3fff 	cmp.w	r3, #4294967295
 8002c1c:	d037      	beq.n	8002c8e <UART_WaitOnFlagUntilTimeout+0x8a>
    {
      if (((HAL_GetTick() - Tickstart) > Timeout) || (Timeout == 0U))
 8002c1e:	f7fe f90d 	bl	8000e3c <HAL_GetTick>
 8002c22:	4602      	mov	r2, r0
 8002c24:	683b      	ldr	r3, [r7, #0]
 8002c26:	1ad3      	subs	r3, r2, r3
 8002c28:	6a3a      	ldr	r2, [r7, #32]
 8002c2a:	429a      	cmp	r2, r3
 8002c2c:	d302      	bcc.n	8002c34 <UART_WaitOnFlagUntilTimeout+0x30>
 8002c2e:	6a3b      	ldr	r3, [r7, #32]
 8002c30:	2b00      	cmp	r3, #0
 8002c32:	d101      	bne.n	8002c38 <UART_WaitOnFlagUntilTimeout+0x34>
      {

        return HAL_TIMEOUT;
 8002c34:	2303      	movs	r3, #3
 8002c36:	e03a      	b.n	8002cae <UART_WaitOnFlagUntilTimeout+0xaa>
      }

      if ((READ_BIT(huart->Instance->CR1, USART_CR1_RE) != 0U) && (Flag != UART_FLAG_TXE) && (Flag != UART_FLAG_TC))
 8002c38:	68fb      	ldr	r3, [r7, #12]
 8002c3a:	681b      	ldr	r3, [r3, #0]
 8002c3c:	68db      	ldr	r3, [r3, #12]
 8002c3e:	f003 0304 	and.w	r3, r3, #4
 8002c42:	2b00      	cmp	r3, #0
 8002c44:	d023      	beq.n	8002c8e <UART_WaitOnFlagUntilTimeout+0x8a>
 8002c46:	68bb      	ldr	r3, [r7, #8]
 8002c48:	2b80      	cmp	r3, #128	; 0x80
 8002c4a:	d020      	beq.n	8002c8e <UART_WaitOnFlagUntilTimeout+0x8a>
 8002c4c:	68bb      	ldr	r3, [r7, #8]
 8002c4e:	2b40      	cmp	r3, #64	; 0x40
 8002c50:	d01d      	beq.n	8002c8e <UART_WaitOnFlagUntilTimeout+0x8a>
      {
        if (__HAL_UART_GET_FLAG(huart, UART_FLAG_ORE) == SET)
 8002c52:	68fb      	ldr	r3, [r7, #12]
 8002c54:	681b      	ldr	r3, [r3, #0]
 8002c56:	681b      	ldr	r3, [r3, #0]
 8002c58:	f003 0308 	and.w	r3, r3, #8
 8002c5c:	2b08      	cmp	r3, #8
 8002c5e:	d116      	bne.n	8002c8e <UART_WaitOnFlagUntilTimeout+0x8a>
        {
          /* Clear Overrun Error flag*/
          __HAL_UART_CLEAR_OREFLAG(huart);
 8002c60:	2300      	movs	r3, #0
 8002c62:	617b      	str	r3, [r7, #20]
 8002c64:	68fb      	ldr	r3, [r7, #12]
 8002c66:	681b      	ldr	r3, [r3, #0]
 8002c68:	681b      	ldr	r3, [r3, #0]
 8002c6a:	617b      	str	r3, [r7, #20]
 8002c6c:	68fb      	ldr	r3, [r7, #12]
 8002c6e:	681b      	ldr	r3, [r3, #0]
 8002c70:	685b      	ldr	r3, [r3, #4]
 8002c72:	617b      	str	r3, [r7, #20]
 8002c74:	697b      	ldr	r3, [r7, #20]

          /* Blocking error : transfer is aborted
          Set the UART state ready to be able to start again the process,
          Disable Rx Interrupts if ongoing */
          UART_EndRxTransfer(huart);
 8002c76:	68f8      	ldr	r0, [r7, #12]
 8002c78:	f000 f81d 	bl	8002cb6 <UART_EndRxTransfer>

          huart->ErrorCode = HAL_UART_ERROR_ORE;
 8002c7c:	68fb      	ldr	r3, [r7, #12]
 8002c7e:	2208      	movs	r2, #8
 8002c80:	645a      	str	r2, [r3, #68]	; 0x44

          /* Process Unlocked */
          __HAL_UNLOCK(huart);
 8002c82:	68fb      	ldr	r3, [r7, #12]
 8002c84:	2200      	movs	r2, #0
 8002c86:	f883 2040 	strb.w	r2, [r3, #64]	; 0x40

          return HAL_ERROR;
 8002c8a:	2301      	movs	r3, #1
 8002c8c:	e00f      	b.n	8002cae <UART_WaitOnFlagUntilTimeout+0xaa>
  while ((__HAL_UART_GET_FLAG(huart, Flag) ? SET : RESET) == Status)
 8002c8e:	68fb      	ldr	r3, [r7, #12]
 8002c90:	681b      	ldr	r3, [r3, #0]
 8002c92:	681a      	ldr	r2, [r3, #0]
 8002c94:	68bb      	ldr	r3, [r7, #8]
 8002c96:	4013      	ands	r3, r2
 8002c98:	68ba      	ldr	r2, [r7, #8]
 8002c9a:	429a      	cmp	r2, r3
 8002c9c:	bf0c      	ite	eq
 8002c9e:	2301      	moveq	r3, #1
 8002ca0:	2300      	movne	r3, #0
 8002ca2:	b2db      	uxtb	r3, r3
 8002ca4:	461a      	mov	r2, r3
 8002ca6:	79fb      	ldrb	r3, [r7, #7]
 8002ca8:	429a      	cmp	r2, r3
 8002caa:	d0b4      	beq.n	8002c16 <UART_WaitOnFlagUntilTimeout+0x12>
        }
      }
    }
  }
  return HAL_OK;
 8002cac:	2300      	movs	r3, #0
}
 8002cae:	4618      	mov	r0, r3
 8002cb0:	3718      	adds	r7, #24
 8002cb2:	46bd      	mov	sp, r7
 8002cb4:	bd80      	pop	{r7, pc}

08002cb6 <UART_EndRxTransfer>:
  * @brief  End ongoing Rx transfer on UART peripheral (following error detection or Reception completion).
  * @param  huart UART handle.
  * @retval None
  */
static void UART_EndRxTransfer(UART_HandleTypeDef *huart)
{
 8002cb6:	b480      	push	{r7}
 8002cb8:	b095      	sub	sp, #84	; 0x54
 8002cba:	af00      	add	r7, sp, #0
 8002cbc:	6078      	str	r0, [r7, #4]
  /* Disable RXNE, PE and ERR (Frame error, noise error, overrun error) interrupts */
  ATOMIC_CLEAR_BIT(huart->Instance->CR1, (USART_CR1_RXNEIE | USART_CR1_PEIE));
 8002cbe:	687b      	ldr	r3, [r7, #4]
 8002cc0:	681b      	ldr	r3, [r3, #0]
 8002cc2:	330c      	adds	r3, #12
 8002cc4:	637b      	str	r3, [r7, #52]	; 0x34
   __ASM volatile ("ldrex %0, %1" : "=r" (result) : "Q" (*addr) );
 8002cc6:	6b7b      	ldr	r3, [r7, #52]	; 0x34
 8002cc8:	e853 3f00 	ldrex	r3, [r3]
 8002ccc:	633b      	str	r3, [r7, #48]	; 0x30
   return(result);
 8002cce:	6b3b      	ldr	r3, [r7, #48]	; 0x30
 8002cd0:	f423 7390 	bic.w	r3, r3, #288	; 0x120
 8002cd4:	64fb      	str	r3, [r7, #76]	; 0x4c
 8002cd6:	687b      	ldr	r3, [r7, #4]
 8002cd8:	681b      	ldr	r3, [r3, #0]
 8002cda:	330c      	adds	r3, #12
 8002cdc:	6cfa      	ldr	r2, [r7, #76]	; 0x4c
 8002cde:	643a      	str	r2, [r7, #64]	; 0x40
 8002ce0:	63fb      	str	r3, [r7, #60]	; 0x3c
   __ASM volatile ("strex %0, %2, %1" : "=&r" (result), "=Q" (*addr) : "r" (value) );
 8002ce2:	6bf9      	ldr	r1, [r7, #60]	; 0x3c
 8002ce4:	6c3a      	ldr	r2, [r7, #64]	; 0x40
 8002ce6:	e841 2300 	strex	r3, r2, [r1]
 8002cea:	63bb      	str	r3, [r7, #56]	; 0x38
   return(result);
 8002cec:	6bbb      	ldr	r3, [r7, #56]	; 0x38
 8002cee:	2b00      	cmp	r3, #0
 8002cf0:	d1e5      	bne.n	8002cbe <UART_EndRxTransfer+0x8>
  ATOMIC_CLEAR_BIT(huart->Instance->CR3, USART_CR3_EIE);
 8002cf2:	687b      	ldr	r3, [r7, #4]
 8002cf4:	681b      	ldr	r3, [r3, #0]
 8002cf6:	3314      	adds	r3, #20
 8002cf8:	623b      	str	r3, [r7, #32]
   __ASM volatile ("ldrex %0, %1" : "=r" (result) : "Q" (*addr) );
 8002cfa:	6a3b      	ldr	r3, [r7, #32]
 8002cfc:	e853 3f00 	ldrex	r3, [r3]
 8002d00:	61fb      	str	r3, [r7, #28]
   return(result);
 8002d02:	69fb      	ldr	r3, [r7, #28]
 8002d04:	f023 0301 	bic.w	r3, r3, #1
 8002d08:	64bb      	str	r3, [r7, #72]	; 0x48
 8002d0a:	687b      	ldr	r3, [r7, #4]
 8002d0c:	681b      	ldr	r3, [r3, #0]
 8002d0e:	3314      	adds	r3, #20
 8002d10:	6cba      	ldr	r2, [r7, #72]	; 0x48
 8002d12:	62fa      	str	r2, [r7, #44]	; 0x2c
 8002d14:	62bb      	str	r3, [r7, #40]	; 0x28
   __ASM volatile ("strex %0, %2, %1" : "=&r" (result), "=Q" (*addr) : "r" (value) );
 8002d16:	6ab9      	ldr	r1, [r7, #40]	; 0x28
 8002d18:	6afa      	ldr	r2, [r7, #44]	; 0x2c
 8002d1a:	e841 2300 	strex	r3, r2, [r1]
 8002d1e:	627b      	str	r3, [r7, #36]	; 0x24
   return(result);
 8002d20:	6a7b      	ldr	r3, [r7, #36]	; 0x24
 8002d22:	2b00      	cmp	r3, #0
 8002d24:	d1e5      	bne.n	8002cf2 <UART_EndRxTransfer+0x3c>

  /* In case of reception waiting for IDLE event, disable also the IDLE IE interrupt source */
  if (huart->ReceptionType == HAL_UART_RECEPTION_TOIDLE)
 8002d26:	687b      	ldr	r3, [r7, #4]
 8002d28:	6b1b      	ldr	r3, [r3, #48]	; 0x30
 8002d2a:	2b01      	cmp	r3, #1
 8002d2c:	d119      	bne.n	8002d62 <UART_EndRxTransfer+0xac>
  {
    ATOMIC_CLEAR_BIT(huart->Instance->CR1, USART_CR1_IDLEIE);
 8002d2e:	687b      	ldr	r3, [r7, #4]
 8002d30:	681b      	ldr	r3, [r3, #0]
 8002d32:	330c      	adds	r3, #12
 8002d34:	60fb      	str	r3, [r7, #12]
   __ASM volatile ("ldrex %0, %1" : "=r" (result) : "Q" (*addr) );
 8002d36:	68fb      	ldr	r3, [r7, #12]
 8002d38:	e853 3f00 	ldrex	r3, [r3]
 8002d3c:	60bb      	str	r3, [r7, #8]
   return(result);
 8002d3e:	68bb      	ldr	r3, [r7, #8]
 8002d40:	f023 0310 	bic.w	r3, r3, #16
 8002d44:	647b      	str	r3, [r7, #68]	; 0x44
 8002d46:	687b      	ldr	r3, [r7, #4]
 8002d48:	681b      	ldr	r3, [r3, #0]
 8002d4a:	330c      	adds	r3, #12
 8002d4c:	6c7a      	ldr	r2, [r7, #68]	; 0x44
 8002d4e:	61ba      	str	r2, [r7, #24]
 8002d50:	617b      	str	r3, [r7, #20]
   __ASM volatile ("strex %0, %2, %1" : "=&r" (result), "=Q" (*addr) : "r" (value) );
 8002d52:	6979      	ldr	r1, [r7, #20]
 8002d54:	69ba      	ldr	r2, [r7, #24]
 8002d56:	e841 2300 	strex	r3, r2, [r1]
 8002d5a:	613b      	str	r3, [r7, #16]
   return(result);
 8002d5c:	693b      	ldr	r3, [r7, #16]
 8002d5e:	2b00      	cmp	r3, #0
 8002d60:	d1e5      	bne.n	8002d2e <UART_EndRxTransfer+0x78>
  }

  /* At end of Rx process, restore huart->RxState to Ready */
  huart->RxState = HAL_UART_STATE_READY;
 8002d62:	687b      	ldr	r3, [r7, #4]
 8002d64:	2220      	movs	r2, #32
 8002d66:	f883 2042 	strb.w	r2, [r3, #66]	; 0x42
  huart->ReceptionType = HAL_UART_RECEPTION_STANDARD;
 8002d6a:	687b      	ldr	r3, [r7, #4]
 8002d6c:	2200      	movs	r2, #0
 8002d6e:	631a      	str	r2, [r3, #48]	; 0x30
}
 8002d70:	bf00      	nop
 8002d72:	3754      	adds	r7, #84	; 0x54
 8002d74:	46bd      	mov	sp, r7
 8002d76:	f85d 7b04 	ldr.w	r7, [sp], #4
 8002d7a:	4770      	bx	lr

08002d7c <UART_SetConfig>:
  * @param  huart  Pointer to a UART_HandleTypeDef structure that contains
  *                the configuration information for the specified UART module.
  * @retval None
  */
static void UART_SetConfig(UART_HandleTypeDef *huart)
{
 8002d7c:	e92d 4fb0 	stmdb	sp!, {r4, r5, r7, r8, r9, sl, fp, lr}
 8002d80:	b0c0      	sub	sp, #256	; 0x100
 8002d82:	af00      	add	r7, sp, #0
 8002d84:	f8c7 00f4 	str.w	r0, [r7, #244]	; 0xf4
  assert_param(IS_UART_MODE(huart->Init.Mode));

  /*-------------------------- USART CR2 Configuration -----------------------*/
  /* Configure the UART Stop Bits: Set STOP[13:12] bits
     according to huart->Init.StopBits value */
  MODIFY_REG(huart->Instance->CR2, USART_CR2_STOP, huart->Init.StopBits);
 8002d88:	f8d7 30f4 	ldr.w	r3, [r7, #244]	; 0xf4
 8002d8c:	681b      	ldr	r3, [r3, #0]
 8002d8e:	691b      	ldr	r3, [r3, #16]
 8002d90:	f423 5040 	bic.w	r0, r3, #12288	; 0x3000
 8002d94:	f8d7 30f4 	ldr.w	r3, [r7, #244]	; 0xf4
 8002d98:	68d9      	ldr	r1, [r3, #12]
 8002d9a:	f8d7 30f4 	ldr.w	r3, [r7, #244]	; 0xf4
 8002d9e:	681a      	ldr	r2, [r3, #0]
 8002da0:	ea40 0301 	orr.w	r3, r0, r1
 8002da4:	6113      	str	r3, [r2, #16]
     Set the M bits according to huart->Init.WordLength value
     Set PCE and PS bits according to huart->Init.Parity value
     Set TE and RE bits according to huart->Init.Mode value
     Set OVER8 bit according to huart->Init.OverSampling value */

  tmpreg = (uint32_t)huart->Init.WordLength | huart->Init.Parity | huart->Init.Mode | huart->Init.OverSampling;
 8002da6:	f8d7 30f4 	ldr.w	r3, [r7, #244]	; 0xf4
 8002daa:	689a      	ldr	r2, [r3, #8]
 8002dac:	f8d7 30f4 	ldr.w	r3, [r7, #244]	; 0xf4
 8002db0:	691b      	ldr	r3, [r3, #16]
 8002db2:	431a      	orrs	r2, r3
 8002db4:	f8d7 30f4 	ldr.w	r3, [r7, #244]	; 0xf4
 8002db8:	695b      	ldr	r3, [r3, #20]
 8002dba:	431a      	orrs	r2, r3
 8002dbc:	f8d7 30f4 	ldr.w	r3, [r7, #244]	; 0xf4
 8002dc0:	69db      	ldr	r3, [r3, #28]
 8002dc2:	4313      	orrs	r3, r2
 8002dc4:	f8c7 30f8 	str.w	r3, [r7, #248]	; 0xf8
  MODIFY_REG(huart->Instance->CR1,
 8002dc8:	f8d7 30f4 	ldr.w	r3, [r7, #244]	; 0xf4
 8002dcc:	681b      	ldr	r3, [r3, #0]
 8002dce:	68db      	ldr	r3, [r3, #12]
 8002dd0:	f423 4116 	bic.w	r1, r3, #38400	; 0x9600
 8002dd4:	f021 010c 	bic.w	r1, r1, #12
 8002dd8:	f8d7 30f4 	ldr.w	r3, [r7, #244]	; 0xf4
 8002ddc:	681a      	ldr	r2, [r3, #0]
 8002dde:	f8d7 30f8 	ldr.w	r3, [r7, #248]	; 0xf8
 8002de2:	430b      	orrs	r3, r1
 8002de4:	60d3      	str	r3, [r2, #12]
             (uint32_t)(USART_CR1_M | USART_CR1_PCE | USART_CR1_PS | USART_CR1_TE | USART_CR1_RE | USART_CR1_OVER8),
             tmpreg);

  /*-------------------------- USART CR3 Configuration -----------------------*/
  /* Configure the UART HFC: Set CTSE and RTSE bits according to huart->Init.HwFlowCtl value */
  MODIFY_REG(huart->Instance->CR3, (USART_CR3_RTSE | USART_CR3_CTSE), huart->Init.HwFlowCtl);
 8002de6:	f8d7 30f4 	ldr.w	r3, [r7, #244]	; 0xf4
 8002dea:	681b      	ldr	r3, [r3, #0]
 8002dec:	695b      	ldr	r3, [r3, #20]
 8002dee:	f423 7040 	bic.w	r0, r3, #768	; 0x300
 8002df2:	f8d7 30f4 	ldr.w	r3, [r7, #244]	; 0xf4
 8002df6:	6999      	ldr	r1, [r3, #24]
 8002df8:	f8d7 30f4 	ldr.w	r3, [r7, #244]	; 0xf4
 8002dfc:	681a      	ldr	r2, [r3, #0]
 8002dfe:	ea40 0301 	orr.w	r3, r0, r1
 8002e02:	6153      	str	r3, [r2, #20]
    if ((huart->Instance == USART1) || (huart->Instance == USART6) || (huart->Instance == UART9) || (huart->Instance == UART10))
    {
      pclk = HAL_RCC_GetPCLK2Freq();
    }
#elif defined(USART6)
    if ((huart->Instance == USART1) || (huart->Instance == USART6))
 8002e04:	f8d7 30f4 	ldr.w	r3, [r7, #244]	; 0xf4
 8002e08:	681a      	ldr	r2, [r3, #0]
 8002e0a:	4b8f      	ldr	r3, [pc, #572]	; (8003048 <UART_SetConfig+0x2cc>)
 8002e0c:	429a      	cmp	r2, r3
 8002e0e:	d005      	beq.n	8002e1c <UART_SetConfig+0xa0>
 8002e10:	f8d7 30f4 	ldr.w	r3, [r7, #244]	; 0xf4
 8002e14:	681a      	ldr	r2, [r3, #0]
 8002e16:	4b8d      	ldr	r3, [pc, #564]	; (800304c <UART_SetConfig+0x2d0>)
 8002e18:	429a      	cmp	r2, r3
 8002e1a:	d104      	bne.n	8002e26 <UART_SetConfig+0xaa>
    {
      pclk = HAL_RCC_GetPCLK2Freq();
 8002e1c:	f7fe ff44 	bl	8001ca8 <HAL_RCC_GetPCLK2Freq>
 8002e20:	f8c7 00fc 	str.w	r0, [r7, #252]	; 0xfc
 8002e24:	e003      	b.n	8002e2e <UART_SetConfig+0xb2>
      pclk = HAL_RCC_GetPCLK2Freq();
    }
#endif /* USART6 */
    else
    {
      pclk = HAL_RCC_GetPCLK1Freq();
 8002e26:	f7fe ff2b 	bl	8001c80 <HAL_RCC_GetPCLK1Freq>
 8002e2a:	f8c7 00fc 	str.w	r0, [r7, #252]	; 0xfc
    }
  /*-------------------------- USART BRR Configuration ---------------------*/
  if (huart->Init.OverSampling == UART_OVERSAMPLING_8)
 8002e2e:	f8d7 30f4 	ldr.w	r3, [r7, #244]	; 0xf4
 8002e32:	69db      	ldr	r3, [r3, #28]
 8002e34:	f5b3 4f00 	cmp.w	r3, #32768	; 0x8000
 8002e38:	f040 810c 	bne.w	8003054 <UART_SetConfig+0x2d8>
  {
    huart->Instance->BRR = UART_BRR_SAMPLING8(pclk, huart->Init.BaudRate);
 8002e3c:	f8d7 30fc 	ldr.w	r3, [r7, #252]	; 0xfc
 8002e40:	2200      	movs	r2, #0
 8002e42:	f8c7 30e8 	str.w	r3, [r7, #232]	; 0xe8
 8002e46:	f8c7 20ec 	str.w	r2, [r7, #236]	; 0xec
 8002e4a:	e9d7 453a 	ldrd	r4, r5, [r7, #232]	; 0xe8
 8002e4e:	4622      	mov	r2, r4
 8002e50:	462b      	mov	r3, r5
 8002e52:	1891      	adds	r1, r2, r2
 8002e54:	65b9      	str	r1, [r7, #88]	; 0x58
 8002e56:	415b      	adcs	r3, r3
 8002e58:	65fb      	str	r3, [r7, #92]	; 0x5c
 8002e5a:	e9d7 2316 	ldrd	r2, r3, [r7, #88]	; 0x58
 8002e5e:	4621      	mov	r1, r4
 8002e60:	eb12 0801 	adds.w	r8, r2, r1
 8002e64:	4629      	mov	r1, r5
 8002e66:	eb43 0901 	adc.w	r9, r3, r1
 8002e6a:	f04f 0200 	mov.w	r2, #0
 8002e6e:	f04f 0300 	mov.w	r3, #0
 8002e72:	ea4f 03c9 	mov.w	r3, r9, lsl #3
 8002e76:	ea43 7358 	orr.w	r3, r3, r8, lsr #29
 8002e7a:	ea4f 02c8 	mov.w	r2, r8, lsl #3
 8002e7e:	4690      	mov	r8, r2
 8002e80:	4699      	mov	r9, r3
 8002e82:	4623      	mov	r3, r4
 8002e84:	eb18 0303 	adds.w	r3, r8, r3
 8002e88:	f8c7 30e0 	str.w	r3, [r7, #224]	; 0xe0
 8002e8c:	462b      	mov	r3, r5
 8002e8e:	eb49 0303 	adc.w	r3, r9, r3
 8002e92:	f8c7 30e4 	str.w	r3, [r7, #228]	; 0xe4
 8002e96:	f8d7 30f4 	ldr.w	r3, [r7, #244]	; 0xf4
 8002e9a:	685b      	ldr	r3, [r3, #4]
 8002e9c:	2200      	movs	r2, #0
 8002e9e:	f8c7 30d8 	str.w	r3, [r7, #216]	; 0xd8
 8002ea2:	f8c7 20dc 	str.w	r2, [r7, #220]	; 0xdc
 8002ea6:	e9d7 1236 	ldrd	r1, r2, [r7, #216]	; 0xd8
 8002eaa:	460b      	mov	r3, r1
 8002eac:	18db      	adds	r3, r3, r3
 8002eae:	653b      	str	r3, [r7, #80]	; 0x50
 8002eb0:	4613      	mov	r3, r2
 8002eb2:	eb42 0303 	adc.w	r3, r2, r3
 8002eb6:	657b      	str	r3, [r7, #84]	; 0x54
 8002eb8:	e9d7 2314 	ldrd	r2, r3, [r7, #80]	; 0x50
 8002ebc:	e9d7 0138 	ldrd	r0, r1, [r7, #224]	; 0xe0
 8002ec0:	f7fd f9de 	bl	8000280 <__aeabi_uldivmod>
 8002ec4:	4602      	mov	r2, r0
 8002ec6:	460b      	mov	r3, r1
 8002ec8:	4b61      	ldr	r3, [pc, #388]	; (8003050 <UART_SetConfig+0x2d4>)
 8002eca:	fba3 2302 	umull	r2, r3, r3, r2
 8002ece:	095b      	lsrs	r3, r3, #5
 8002ed0:	011c      	lsls	r4, r3, #4
 8002ed2:	f8d7 30fc 	ldr.w	r3, [r7, #252]	; 0xfc
 8002ed6:	2200      	movs	r2, #0
 8002ed8:	f8c7 30d0 	str.w	r3, [r7, #208]	; 0xd0
 8002edc:	f8c7 20d4 	str.w	r2, [r7, #212]	; 0xd4
 8002ee0:	e9d7 8934 	ldrd	r8, r9, [r7, #208]	; 0xd0
 8002ee4:	4642      	mov	r2, r8
 8002ee6:	464b      	mov	r3, r9
 8002ee8:	1891      	adds	r1, r2, r2
 8002eea:	64b9      	str	r1, [r7, #72]	; 0x48
 8002eec:	415b      	adcs	r3, r3
 8002eee:	64fb      	str	r3, [r7, #76]	; 0x4c
 8002ef0:	e9d7 2312 	ldrd	r2, r3, [r7, #72]	; 0x48
 8002ef4:	4641      	mov	r1, r8
 8002ef6:	eb12 0a01 	adds.w	sl, r2, r1
 8002efa:	4649      	mov	r1, r9
 8002efc:	eb43 0b01 	adc.w	fp, r3, r1
 8002f00:	f04f 0200 	mov.w	r2, #0
 8002f04:	f04f 0300 	mov.w	r3, #0
 8002f08:	ea4f 03cb 	mov.w	r3, fp, lsl #3
 8002f0c:	ea43 735a 	orr.w	r3, r3, sl, lsr #29
 8002f10:	ea4f 02ca 	mov.w	r2, sl, lsl #3
 8002f14:	4692      	mov	sl, r2
 8002f16:	469b      	mov	fp, r3
 8002f18:	4643      	mov	r3, r8
 8002f1a:	eb1a 0303 	adds.w	r3, sl, r3
 8002f1e:	f8c7 30c8 	str.w	r3, [r7, #200]	; 0xc8
 8002f22:	464b      	mov	r3, r9
 8002f24:	eb4b 0303 	adc.w	r3, fp, r3
 8002f28:	f8c7 30cc 	str.w	r3, [r7, #204]	; 0xcc
 8002f2c:	f8d7 30f4 	ldr.w	r3, [r7, #244]	; 0xf4
 8002f30:	685b      	ldr	r3, [r3, #4]
 8002f32:	2200      	movs	r2, #0
 8002f34:	f8c7 30c0 	str.w	r3, [r7, #192]	; 0xc0
 8002f38:	f8c7 20c4 	str.w	r2, [r7, #196]	; 0xc4
 8002f3c:	e9d7 1230 	ldrd	r1, r2, [r7, #192]	; 0xc0
 8002f40:	460b      	mov	r3, r1
 8002f42:	18db      	adds	r3, r3, r3
 8002f44:	643b      	str	r3, [r7, #64]	; 0x40
 8002f46:	4613      	mov	r3, r2
 8002f48:	eb42 0303 	adc.w	r3, r2, r3
 8002f4c:	647b      	str	r3, [r7, #68]	; 0x44
 8002f4e:	e9d7 2310 	ldrd	r2, r3, [r7, #64]	; 0x40
 8002f52:	e9d7 0132 	ldrd	r0, r1, [r7, #200]	; 0xc8
 8002f56:	f7fd f993 	bl	8000280 <__aeabi_uldivmod>
 8002f5a:	4602      	mov	r2, r0
 8002f5c:	460b      	mov	r3, r1
 8002f5e:	4611      	mov	r1, r2
 8002f60:	4b3b      	ldr	r3, [pc, #236]	; (8003050 <UART_SetConfig+0x2d4>)
 8002f62:	fba3 2301 	umull	r2, r3, r3, r1
 8002f66:	095b      	lsrs	r3, r3, #5
 8002f68:	2264      	movs	r2, #100	; 0x64
 8002f6a:	fb02 f303 	mul.w	r3, r2, r3
 8002f6e:	1acb      	subs	r3, r1, r3
 8002f70:	00db      	lsls	r3, r3, #3
 8002f72:	f103 0232 	add.w	r2, r3, #50	; 0x32
 8002f76:	4b36      	ldr	r3, [pc, #216]	; (8003050 <UART_SetConfig+0x2d4>)
 8002f78:	fba3 2302 	umull	r2, r3, r3, r2
 8002f7c:	095b      	lsrs	r3, r3, #5
 8002f7e:	005b      	lsls	r3, r3, #1
 8002f80:	f403 73f8 	and.w	r3, r3, #496	; 0x1f0
 8002f84:	441c      	add	r4, r3
 8002f86:	f8d7 30fc 	ldr.w	r3, [r7, #252]	; 0xfc
 8002f8a:	2200      	movs	r2, #0
 8002f8c:	f8c7 30b8 	str.w	r3, [r7, #184]	; 0xb8
 8002f90:	f8c7 20bc 	str.w	r2, [r7, #188]	; 0xbc
 8002f94:	e9d7 892e 	ldrd	r8, r9, [r7, #184]	; 0xb8
 8002f98:	4642      	mov	r2, r8
 8002f9a:	464b      	mov	r3, r9
 8002f9c:	1891      	adds	r1, r2, r2
 8002f9e:	63b9      	str	r1, [r7, #56]	; 0x38
 8002fa0:	415b      	adcs	r3, r3
 8002fa2:	63fb      	str	r3, [r7, #60]	; 0x3c
 8002fa4:	e9d7 230e 	ldrd	r2, r3, [r7, #56]	; 0x38
 8002fa8:	4641      	mov	r1, r8
 8002faa:	1851      	adds	r1, r2, r1
 8002fac:	6339      	str	r1, [r7, #48]	; 0x30
 8002fae:	4649      	mov	r1, r9
 8002fb0:	414b      	adcs	r3, r1
 8002fb2:	637b      	str	r3, [r7, #52]	; 0x34
 8002fb4:	f04f 0200 	mov.w	r2, #0
 8002fb8:	f04f 0300 	mov.w	r3, #0
 8002fbc:	e9d7 ab0c 	ldrd	sl, fp, [r7, #48]	; 0x30
 8002fc0:	4659      	mov	r1, fp
 8002fc2:	00cb      	lsls	r3, r1, #3
 8002fc4:	4651      	mov	r1, sl
 8002fc6:	ea43 7351 	orr.w	r3, r3, r1, lsr #29
 8002fca:	4651      	mov	r1, sl
 8002fcc:	00ca      	lsls	r2, r1, #3
 8002fce:	4610      	mov	r0, r2
 8002fd0:	4619      	mov	r1, r3
 8002fd2:	4603      	mov	r3, r0
 8002fd4:	4642      	mov	r2, r8
 8002fd6:	189b      	adds	r3, r3, r2
 8002fd8:	f8c7 30b0 	str.w	r3, [r7, #176]	; 0xb0
 8002fdc:	464b      	mov	r3, r9
 8002fde:	460a      	mov	r2, r1
 8002fe0:	eb42 0303 	adc.w	r3, r2, r3
 8002fe4:	f8c7 30b4 	str.w	r3, [r7, #180]	; 0xb4
 8002fe8:	f8d7 30f4 	ldr.w	r3, [r7, #244]	; 0xf4
 8002fec:	685b      	ldr	r3, [r3, #4]
 8002fee:	2200      	movs	r2, #0
 8002ff0:	f8c7 30a8 	str.w	r3, [r7, #168]	; 0xa8
 8002ff4:	f8c7 20ac 	str.w	r2, [r7, #172]	; 0xac
 8002ff8:	e9d7 122a 	ldrd	r1, r2, [r7, #168]	; 0xa8
 8002ffc:	460b      	mov	r3, r1
 8002ffe:	18db      	adds	r3, r3, r3
 8003000:	62bb      	str	r3, [r7, #40]	; 0x28
 8003002:	4613      	mov	r3, r2
 8003004:	eb42 0303 	adc.w	r3, r2, r3
 8003008:	62fb      	str	r3, [r7, #44]	; 0x2c
 800300a:	e9d7 230a 	ldrd	r2, r3, [r7, #40]	; 0x28
 800300e:	e9d7 012c 	ldrd	r0, r1, [r7, #176]	; 0xb0
 8003012:	f7fd f935 	bl	8000280 <__aeabi_uldivmod>
 8003016:	4602      	mov	r2, r0
 8003018:	460b      	mov	r3, r1
 800301a:	4b0d      	ldr	r3, [pc, #52]	; (8003050 <UART_SetConfig+0x2d4>)
 800301c:	fba3 1302 	umull	r1, r3, r3, r2
 8003020:	095b      	lsrs	r3, r3, #5
 8003022:	2164      	movs	r1, #100	; 0x64
 8003024:	fb01 f303 	mul.w	r3, r1, r3
 8003028:	1ad3      	subs	r3, r2, r3
 800302a:	00db      	lsls	r3, r3, #3
 800302c:	3332      	adds	r3, #50	; 0x32
 800302e:	4a08      	ldr	r2, [pc, #32]	; (8003050 <UART_SetConfig+0x2d4>)
 8003030:	fba2 2303 	umull	r2, r3, r2, r3
 8003034:	095b      	lsrs	r3, r3, #5
 8003036:	f003 0207 	and.w	r2, r3, #7
 800303a:	f8d7 30f4 	ldr.w	r3, [r7, #244]	; 0xf4
 800303e:	681b      	ldr	r3, [r3, #0]
 8003040:	4422      	add	r2, r4
 8003042:	609a      	str	r2, [r3, #8]
  }
  else
  {
    huart->Instance->BRR = UART_BRR_SAMPLING16(pclk, huart->Init.BaudRate);
  }
}
 8003044:	e106      	b.n	8003254 <UART_SetConfig+0x4d8>
 8003046:	bf00      	nop
 8003048:	40011000 	.word	0x40011000
 800304c:	40011400 	.word	0x40011400
 8003050:	51eb851f 	.word	0x51eb851f
    huart->Instance->BRR = UART_BRR_SAMPLING16(pclk, huart->Init.BaudRate);
 8003054:	f8d7 30fc 	ldr.w	r3, [r7, #252]	; 0xfc
 8003058:	2200      	movs	r2, #0
 800305a:	f8c7 30a0 	str.w	r3, [r7, #160]	; 0xa0
 800305e:	f8c7 20a4 	str.w	r2, [r7, #164]	; 0xa4
 8003062:	e9d7 8928 	ldrd	r8, r9, [r7, #160]	; 0xa0
 8003066:	4642      	mov	r2, r8
 8003068:	464b      	mov	r3, r9
 800306a:	1891      	adds	r1, r2, r2
 800306c:	6239      	str	r1, [r7, #32]
 800306e:	415b      	adcs	r3, r3
 8003070:	627b      	str	r3, [r7, #36]	; 0x24
 8003072:	e9d7 2308 	ldrd	r2, r3, [r7, #32]
 8003076:	4641      	mov	r1, r8
 8003078:	1854      	adds	r4, r2, r1
 800307a:	4649      	mov	r1, r9
 800307c:	eb43 0501 	adc.w	r5, r3, r1
 8003080:	f04f 0200 	mov.w	r2, #0
 8003084:	f04f 0300 	mov.w	r3, #0
 8003088:	00eb      	lsls	r3, r5, #3
 800308a:	ea43 7354 	orr.w	r3, r3, r4, lsr #29
 800308e:	00e2      	lsls	r2, r4, #3
 8003090:	4614      	mov	r4, r2
 8003092:	461d      	mov	r5, r3
 8003094:	4643      	mov	r3, r8
 8003096:	18e3      	adds	r3, r4, r3
 8003098:	f8c7 3098 	str.w	r3, [r7, #152]	; 0x98
 800309c:	464b      	mov	r3, r9
 800309e:	eb45 0303 	adc.w	r3, r5, r3
 80030a2:	f8c7 309c 	str.w	r3, [r7, #156]	; 0x9c
 80030a6:	f8d7 30f4 	ldr.w	r3, [r7, #244]	; 0xf4
 80030aa:	685b      	ldr	r3, [r3, #4]
 80030ac:	2200      	movs	r2, #0
 80030ae:	f8c7 3090 	str.w	r3, [r7, #144]	; 0x90
 80030b2:	f8c7 2094 	str.w	r2, [r7, #148]	; 0x94
 80030b6:	f04f 0200 	mov.w	r2, #0
 80030ba:	f04f 0300 	mov.w	r3, #0
 80030be:	e9d7 4524 	ldrd	r4, r5, [r7, #144]	; 0x90
 80030c2:	4629      	mov	r1, r5
 80030c4:	008b      	lsls	r3, r1, #2
 80030c6:	4621      	mov	r1, r4
 80030c8:	ea43 7391 	orr.w	r3, r3, r1, lsr #30
 80030cc:	4621      	mov	r1, r4
 80030ce:	008a      	lsls	r2, r1, #2
 80030d0:	e9d7 0126 	ldrd	r0, r1, [r7, #152]	; 0x98
 80030d4:	f7fd f8d4 	bl	8000280 <__aeabi_uldivmod>
 80030d8:	4602      	mov	r2, r0
 80030da:	460b      	mov	r3, r1
 80030dc:	4b60      	ldr	r3, [pc, #384]	; (8003260 <UART_SetConfig+0x4e4>)
 80030de:	fba3 2302 	umull	r2, r3, r3, r2
 80030e2:	095b      	lsrs	r3, r3, #5
 80030e4:	011c      	lsls	r4, r3, #4
 80030e6:	f8d7 30fc 	ldr.w	r3, [r7, #252]	; 0xfc
 80030ea:	2200      	movs	r2, #0
 80030ec:	f8c7 3088 	str.w	r3, [r7, #136]	; 0x88
 80030f0:	f8c7 208c 	str.w	r2, [r7, #140]	; 0x8c
 80030f4:	e9d7 8922 	ldrd	r8, r9, [r7, #136]	; 0x88
 80030f8:	4642      	mov	r2, r8
 80030fa:	464b      	mov	r3, r9
 80030fc:	1891      	adds	r1, r2, r2
 80030fe:	61b9      	str	r1, [r7, #24]
 8003100:	415b      	adcs	r3, r3
 8003102:	61fb      	str	r3, [r7, #28]
 8003104:	e9d7 2306 	ldrd	r2, r3, [r7, #24]
 8003108:	4641      	mov	r1, r8
 800310a:	1851      	adds	r1, r2, r1
 800310c:	6139      	str	r1, [r7, #16]
 800310e:	4649      	mov	r1, r9
 8003110:	414b      	adcs	r3, r1
 8003112:	617b      	str	r3, [r7, #20]
 8003114:	f04f 0200 	mov.w	r2, #0
 8003118:	f04f 0300 	mov.w	r3, #0
 800311c:	e9d7 ab04 	ldrd	sl, fp, [r7, #16]
 8003120:	4659      	mov	r1, fp
 8003122:	00cb      	lsls	r3, r1, #3
 8003124:	4651      	mov	r1, sl
 8003126:	ea43 7351 	orr.w	r3, r3, r1, lsr #29
 800312a:	4651      	mov	r1, sl
 800312c:	00ca      	lsls	r2, r1, #3
 800312e:	4610      	mov	r0, r2
 8003130:	4619      	mov	r1, r3
 8003132:	4603      	mov	r3, r0
 8003134:	4642      	mov	r2, r8
 8003136:	189b      	adds	r3, r3, r2
 8003138:	f8c7 3080 	str.w	r3, [r7, #128]	; 0x80
 800313c:	464b      	mov	r3, r9
 800313e:	460a      	mov	r2, r1
 8003140:	eb42 0303 	adc.w	r3, r2, r3
 8003144:	f8c7 3084 	str.w	r3, [r7, #132]	; 0x84
 8003148:	f8d7 30f4 	ldr.w	r3, [r7, #244]	; 0xf4
 800314c:	685b      	ldr	r3, [r3, #4]
 800314e:	2200      	movs	r2, #0
 8003150:	67bb      	str	r3, [r7, #120]	; 0x78
 8003152:	67fa      	str	r2, [r7, #124]	; 0x7c
 8003154:	f04f 0200 	mov.w	r2, #0
 8003158:	f04f 0300 	mov.w	r3, #0
 800315c:	e9d7 891e 	ldrd	r8, r9, [r7, #120]	; 0x78
 8003160:	4649      	mov	r1, r9
 8003162:	008b      	lsls	r3, r1, #2
 8003164:	4641      	mov	r1, r8
 8003166:	ea43 7391 	orr.w	r3, r3, r1, lsr #30
 800316a:	4641      	mov	r1, r8
 800316c:	008a      	lsls	r2, r1, #2
 800316e:	e9d7 0120 	ldrd	r0, r1, [r7, #128]	; 0x80
 8003172:	f7fd f885 	bl	8000280 <__aeabi_uldivmod>
 8003176:	4602      	mov	r2, r0
 8003178:	460b      	mov	r3, r1
 800317a:	4611      	mov	r1, r2
 800317c:	4b38      	ldr	r3, [pc, #224]	; (8003260 <UART_SetConfig+0x4e4>)
 800317e:	fba3 2301 	umull	r2, r3, r3, r1
 8003182:	095b      	lsrs	r3, r3, #5
 8003184:	2264      	movs	r2, #100	; 0x64
 8003186:	fb02 f303 	mul.w	r3, r2, r3
 800318a:	1acb      	subs	r3, r1, r3
 800318c:	011b      	lsls	r3, r3, #4
 800318e:	3332      	adds	r3, #50	; 0x32
 8003190:	4a33      	ldr	r2, [pc, #204]	; (8003260 <UART_SetConfig+0x4e4>)
 8003192:	fba2 2303 	umull	r2, r3, r2, r3
 8003196:	095b      	lsrs	r3, r3, #5
 8003198:	f003 03f0 	and.w	r3, r3, #240	; 0xf0
 800319c:	441c      	add	r4, r3
 800319e:	f8d7 30fc 	ldr.w	r3, [r7, #252]	; 0xfc
 80031a2:	2200      	movs	r2, #0
 80031a4:	673b      	str	r3, [r7, #112]	; 0x70
 80031a6:	677a      	str	r2, [r7, #116]	; 0x74
 80031a8:	e9d7 891c 	ldrd	r8, r9, [r7, #112]	; 0x70
 80031ac:	4642      	mov	r2, r8
 80031ae:	464b      	mov	r3, r9
 80031b0:	1891      	adds	r1, r2, r2
 80031b2:	60b9      	str	r1, [r7, #8]
 80031b4:	415b      	adcs	r3, r3
 80031b6:	60fb      	str	r3, [r7, #12]
 80031b8:	e9d7 2302 	ldrd	r2, r3, [r7, #8]
 80031bc:	4641      	mov	r1, r8
 80031be:	1851      	adds	r1, r2, r1
 80031c0:	6039      	str	r1, [r7, #0]
 80031c2:	4649      	mov	r1, r9
 80031c4:	414b      	adcs	r3, r1
 80031c6:	607b      	str	r3, [r7, #4]
 80031c8:	f04f 0200 	mov.w	r2, #0
 80031cc:	f04f 0300 	mov.w	r3, #0
 80031d0:	e9d7 ab00 	ldrd	sl, fp, [r7]
 80031d4:	4659      	mov	r1, fp
 80031d6:	00cb      	lsls	r3, r1, #3
 80031d8:	4651      	mov	r1, sl
 80031da:	ea43 7351 	orr.w	r3, r3, r1, lsr #29
 80031de:	4651      	mov	r1, sl
 80031e0:	00ca      	lsls	r2, r1, #3
 80031e2:	4610      	mov	r0, r2
 80031e4:	4619      	mov	r1, r3
 80031e6:	4603      	mov	r3, r0
 80031e8:	4642      	mov	r2, r8
 80031ea:	189b      	adds	r3, r3, r2
 80031ec:	66bb      	str	r3, [r7, #104]	; 0x68
 80031ee:	464b      	mov	r3, r9
 80031f0:	460a      	mov	r2, r1
 80031f2:	eb42 0303 	adc.w	r3, r2, r3
 80031f6:	66fb      	str	r3, [r7, #108]	; 0x6c
 80031f8:	f8d7 30f4 	ldr.w	r3, [r7, #244]	; 0xf4
 80031fc:	685b      	ldr	r3, [r3, #4]
 80031fe:	2200      	movs	r2, #0
 8003200:	663b      	str	r3, [r7, #96]	; 0x60
 8003202:	667a      	str	r2, [r7, #100]	; 0x64
 8003204:	f04f 0200 	mov.w	r2, #0
 8003208:	f04f 0300 	mov.w	r3, #0
 800320c:	e9d7 8918 	ldrd	r8, r9, [r7, #96]	; 0x60
 8003210:	4649      	mov	r1, r9
 8003212:	008b      	lsls	r3, r1, #2
 8003214:	4641      	mov	r1, r8
 8003216:	ea43 7391 	orr.w	r3, r3, r1, lsr #30
 800321a:	4641      	mov	r1, r8
 800321c:	008a      	lsls	r2, r1, #2
 800321e:	e9d7 011a 	ldrd	r0, r1, [r7, #104]	; 0x68
 8003222:	f7fd f82d 	bl	8000280 <__aeabi_uldivmod>
 8003226:	4602      	mov	r2, r0
 8003228:	460b      	mov	r3, r1
 800322a:	4b0d      	ldr	r3, [pc, #52]	; (8003260 <UART_SetConfig+0x4e4>)
 800322c:	fba3 1302 	umull	r1, r3, r3, r2
 8003230:	095b      	lsrs	r3, r3, #5
 8003232:	2164      	movs	r1, #100	; 0x64
 8003234:	fb01 f303 	mul.w	r3, r1, r3
 8003238:	1ad3      	subs	r3, r2, r3
 800323a:	011b      	lsls	r3, r3, #4
 800323c:	3332      	adds	r3, #50	; 0x32
 800323e:	4a08      	ldr	r2, [pc, #32]	; (8003260 <UART_SetConfig+0x4e4>)
 8003240:	fba2 2303 	umull	r2, r3, r2, r3
 8003244:	095b      	lsrs	r3, r3, #5
 8003246:	f003 020f 	and.w	r2, r3, #15
 800324a:	f8d7 30f4 	ldr.w	r3, [r7, #244]	; 0xf4
 800324e:	681b      	ldr	r3, [r3, #0]
 8003250:	4422      	add	r2, r4
 8003252:	609a      	str	r2, [r3, #8]
}
 8003254:	bf00      	nop
 8003256:	f507 7780 	add.w	r7, r7, #256	; 0x100
 800325a:	46bd      	mov	sp, r7
 800325c:	e8bd 8fb0 	ldmia.w	sp!, {r4, r5, r7, r8, r9, sl, fp, pc}
 8003260:	51eb851f 	.word	0x51eb851f

08003264 <std>:
 8003264:	2300      	movs	r3, #0
 8003266:	b510      	push	{r4, lr}
 8003268:	4604      	mov	r4, r0
 800326a:	e9c0 3300 	strd	r3, r3, [r0]
 800326e:	e9c0 3304 	strd	r3, r3, [r0, #16]
 8003272:	6083      	str	r3, [r0, #8]
 8003274:	8181      	strh	r1, [r0, #12]
 8003276:	6643      	str	r3, [r0, #100]	; 0x64
 8003278:	81c2      	strh	r2, [r0, #14]
 800327a:	6183      	str	r3, [r0, #24]
 800327c:	4619      	mov	r1, r3
 800327e:	2208      	movs	r2, #8
 8003280:	305c      	adds	r0, #92	; 0x5c
 8003282:	f000 fac5 	bl	8003810 <memset>
 8003286:	4b0d      	ldr	r3, [pc, #52]	; (80032bc <std+0x58>)
 8003288:	6263      	str	r3, [r4, #36]	; 0x24
 800328a:	4b0d      	ldr	r3, [pc, #52]	; (80032c0 <std+0x5c>)
 800328c:	62a3      	str	r3, [r4, #40]	; 0x28
 800328e:	4b0d      	ldr	r3, [pc, #52]	; (80032c4 <std+0x60>)
 8003290:	62e3      	str	r3, [r4, #44]	; 0x2c
 8003292:	4b0d      	ldr	r3, [pc, #52]	; (80032c8 <std+0x64>)
 8003294:	6323      	str	r3, [r4, #48]	; 0x30
 8003296:	4b0d      	ldr	r3, [pc, #52]	; (80032cc <std+0x68>)
 8003298:	6224      	str	r4, [r4, #32]
 800329a:	429c      	cmp	r4, r3
 800329c:	d006      	beq.n	80032ac <std+0x48>
 800329e:	f103 0268 	add.w	r2, r3, #104	; 0x68
 80032a2:	4294      	cmp	r4, r2
 80032a4:	d002      	beq.n	80032ac <std+0x48>
 80032a6:	33d0      	adds	r3, #208	; 0xd0
 80032a8:	429c      	cmp	r4, r3
 80032aa:	d105      	bne.n	80032b8 <std+0x54>
 80032ac:	f104 0058 	add.w	r0, r4, #88	; 0x58
 80032b0:	e8bd 4010 	ldmia.w	sp!, {r4, lr}
 80032b4:	f000 bb24 	b.w	8003900 <__retarget_lock_init_recursive>
 80032b8:	bd10      	pop	{r4, pc}
 80032ba:	bf00      	nop
 80032bc:	08003661 	.word	0x08003661
 80032c0:	08003683 	.word	0x08003683
 80032c4:	080036bb 	.word	0x080036bb
 80032c8:	080036df 	.word	0x080036df
 80032cc:	2000011c 	.word	0x2000011c

080032d0 <stdio_exit_handler>:
 80032d0:	4a02      	ldr	r2, [pc, #8]	; (80032dc <stdio_exit_handler+0xc>)
 80032d2:	4903      	ldr	r1, [pc, #12]	; (80032e0 <stdio_exit_handler+0x10>)
 80032d4:	4803      	ldr	r0, [pc, #12]	; (80032e4 <stdio_exit_handler+0x14>)
 80032d6:	f000 b869 	b.w	80033ac <_fwalk_sglue>
 80032da:	bf00      	nop
 80032dc:	2000000c 	.word	0x2000000c
 80032e0:	0800446d 	.word	0x0800446d
 80032e4:	20000018 	.word	0x20000018

080032e8 <cleanup_stdio>:
 80032e8:	6841      	ldr	r1, [r0, #4]
 80032ea:	4b0c      	ldr	r3, [pc, #48]	; (800331c <cleanup_stdio+0x34>)
 80032ec:	4299      	cmp	r1, r3
 80032ee:	b510      	push	{r4, lr}
 80032f0:	4604      	mov	r4, r0
 80032f2:	d001      	beq.n	80032f8 <cleanup_stdio+0x10>
 80032f4:	f001 f8ba 	bl	800446c <_fflush_r>
 80032f8:	68a1      	ldr	r1, [r4, #8]
 80032fa:	4b09      	ldr	r3, [pc, #36]	; (8003320 <cleanup_stdio+0x38>)
 80032fc:	4299      	cmp	r1, r3
 80032fe:	d002      	beq.n	8003306 <cleanup_stdio+0x1e>
 8003300:	4620      	mov	r0, r4
 8003302:	f001 f8b3 	bl	800446c <_fflush_r>
 8003306:	68e1      	ldr	r1, [r4, #12]
 8003308:	4b06      	ldr	r3, [pc, #24]	; (8003324 <cleanup_stdio+0x3c>)
 800330a:	4299      	cmp	r1, r3
 800330c:	d004      	beq.n	8003318 <cleanup_stdio+0x30>
 800330e:	4620      	mov	r0, r4
 8003310:	e8bd 4010 	ldmia.w	sp!, {r4, lr}
 8003314:	f001 b8aa 	b.w	800446c <_fflush_r>
 8003318:	bd10      	pop	{r4, pc}
 800331a:	bf00      	nop
 800331c:	2000011c 	.word	0x2000011c
 8003320:	20000184 	.word	0x20000184
 8003324:	200001ec 	.word	0x200001ec

08003328 <global_stdio_init.part.0>:
 8003328:	b510      	push	{r4, lr}
 800332a:	4b0b      	ldr	r3, [pc, #44]	; (8003358 <global_stdio_init.part.0+0x30>)
 800332c:	4c0b      	ldr	r4, [pc, #44]	; (800335c <global_stdio_init.part.0+0x34>)
 800332e:	4a0c      	ldr	r2, [pc, #48]	; (8003360 <global_stdio_init.part.0+0x38>)
 8003330:	601a      	str	r2, [r3, #0]
 8003332:	4620      	mov	r0, r4
 8003334:	2200      	movs	r2, #0
 8003336:	2104      	movs	r1, #4
 8003338:	f7ff ff94 	bl	8003264 <std>
 800333c:	f104 0068 	add.w	r0, r4, #104	; 0x68
 8003340:	2201      	movs	r2, #1
 8003342:	2109      	movs	r1, #9
 8003344:	f7ff ff8e 	bl	8003264 <std>
 8003348:	f104 00d0 	add.w	r0, r4, #208	; 0xd0
 800334c:	2202      	movs	r2, #2
 800334e:	e8bd 4010 	ldmia.w	sp!, {r4, lr}
 8003352:	2112      	movs	r1, #18
 8003354:	f7ff bf86 	b.w	8003264 <std>
 8003358:	20000254 	.word	0x20000254
 800335c:	2000011c 	.word	0x2000011c
 8003360:	080032d1 	.word	0x080032d1

08003364 <__sfp_lock_acquire>:
 8003364:	4801      	ldr	r0, [pc, #4]	; (800336c <__sfp_lock_acquire+0x8>)
 8003366:	f000 bacc 	b.w	8003902 <__retarget_lock_acquire_recursive>
 800336a:	bf00      	nop
 800336c:	2000025d 	.word	0x2000025d

08003370 <__sfp_lock_release>:
 8003370:	4801      	ldr	r0, [pc, #4]	; (8003378 <__sfp_lock_release+0x8>)
 8003372:	f000 bac7 	b.w	8003904 <__retarget_lock_release_recursive>
 8003376:	bf00      	nop
 8003378:	2000025d 	.word	0x2000025d

0800337c <__sinit>:
 800337c:	b510      	push	{r4, lr}
 800337e:	4604      	mov	r4, r0
 8003380:	f7ff fff0 	bl	8003364 <__sfp_lock_acquire>
 8003384:	6a23      	ldr	r3, [r4, #32]
 8003386:	b11b      	cbz	r3, 8003390 <__sinit+0x14>
 8003388:	e8bd 4010 	ldmia.w	sp!, {r4, lr}
 800338c:	f7ff bff0 	b.w	8003370 <__sfp_lock_release>
 8003390:	4b04      	ldr	r3, [pc, #16]	; (80033a4 <__sinit+0x28>)
 8003392:	6223      	str	r3, [r4, #32]
 8003394:	4b04      	ldr	r3, [pc, #16]	; (80033a8 <__sinit+0x2c>)
 8003396:	681b      	ldr	r3, [r3, #0]
 8003398:	2b00      	cmp	r3, #0
 800339a:	d1f5      	bne.n	8003388 <__sinit+0xc>
 800339c:	f7ff ffc4 	bl	8003328 <global_stdio_init.part.0>
 80033a0:	e7f2      	b.n	8003388 <__sinit+0xc>
 80033a2:	bf00      	nop
 80033a4:	080032e9 	.word	0x080032e9
 80033a8:	20000254 	.word	0x20000254

080033ac <_fwalk_sglue>:
 80033ac:	e92d 43f8 	stmdb	sp!, {r3, r4, r5, r6, r7, r8, r9, lr}
 80033b0:	4607      	mov	r7, r0
 80033b2:	4688      	mov	r8, r1
 80033b4:	4614      	mov	r4, r2
 80033b6:	2600      	movs	r6, #0
 80033b8:	e9d4 9501 	ldrd	r9, r5, [r4, #4]
 80033bc:	f1b9 0901 	subs.w	r9, r9, #1
 80033c0:	d505      	bpl.n	80033ce <_fwalk_sglue+0x22>
 80033c2:	6824      	ldr	r4, [r4, #0]
 80033c4:	2c00      	cmp	r4, #0
 80033c6:	d1f7      	bne.n	80033b8 <_fwalk_sglue+0xc>
 80033c8:	4630      	mov	r0, r6
 80033ca:	e8bd 83f8 	ldmia.w	sp!, {r3, r4, r5, r6, r7, r8, r9, pc}
 80033ce:	89ab      	ldrh	r3, [r5, #12]
 80033d0:	2b01      	cmp	r3, #1
 80033d2:	d907      	bls.n	80033e4 <_fwalk_sglue+0x38>
 80033d4:	f9b5 300e 	ldrsh.w	r3, [r5, #14]
 80033d8:	3301      	adds	r3, #1
 80033da:	d003      	beq.n	80033e4 <_fwalk_sglue+0x38>
 80033dc:	4629      	mov	r1, r5
 80033de:	4638      	mov	r0, r7
 80033e0:	47c0      	blx	r8
 80033e2:	4306      	orrs	r6, r0
 80033e4:	3568      	adds	r5, #104	; 0x68
 80033e6:	e7e9      	b.n	80033bc <_fwalk_sglue+0x10>

080033e8 <iprintf>:
 80033e8:	b40f      	push	{r0, r1, r2, r3}
 80033ea:	b507      	push	{r0, r1, r2, lr}
 80033ec:	4906      	ldr	r1, [pc, #24]	; (8003408 <iprintf+0x20>)
 80033ee:	ab04      	add	r3, sp, #16
 80033f0:	6808      	ldr	r0, [r1, #0]
 80033f2:	f853 2b04 	ldr.w	r2, [r3], #4
 80033f6:	6881      	ldr	r1, [r0, #8]
 80033f8:	9301      	str	r3, [sp, #4]
 80033fa:	f000 fd07 	bl	8003e0c <_vfiprintf_r>
 80033fe:	b003      	add	sp, #12
 8003400:	f85d eb04 	ldr.w	lr, [sp], #4
 8003404:	b004      	add	sp, #16
 8003406:	4770      	bx	lr
 8003408:	20000064 	.word	0x20000064

0800340c <_puts_r>:
 800340c:	6a03      	ldr	r3, [r0, #32]
 800340e:	b570      	push	{r4, r5, r6, lr}
 8003410:	6884      	ldr	r4, [r0, #8]
 8003412:	4605      	mov	r5, r0
 8003414:	460e      	mov	r6, r1
 8003416:	b90b      	cbnz	r3, 800341c <_puts_r+0x10>
 8003418:	f7ff ffb0 	bl	800337c <__sinit>
 800341c:	6e63      	ldr	r3, [r4, #100]	; 0x64
 800341e:	07db      	lsls	r3, r3, #31
 8003420:	d405      	bmi.n	800342e <_puts_r+0x22>
 8003422:	89a3      	ldrh	r3, [r4, #12]
 8003424:	0598      	lsls	r0, r3, #22
 8003426:	d402      	bmi.n	800342e <_puts_r+0x22>
 8003428:	6da0      	ldr	r0, [r4, #88]	; 0x58
 800342a:	f000 fa6a 	bl	8003902 <__retarget_lock_acquire_recursive>
 800342e:	89a3      	ldrh	r3, [r4, #12]
 8003430:	0719      	lsls	r1, r3, #28
 8003432:	d513      	bpl.n	800345c <_puts_r+0x50>
 8003434:	6923      	ldr	r3, [r4, #16]
 8003436:	b18b      	cbz	r3, 800345c <_puts_r+0x50>
 8003438:	3e01      	subs	r6, #1
 800343a:	68a3      	ldr	r3, [r4, #8]
 800343c:	f816 1f01 	ldrb.w	r1, [r6, #1]!
 8003440:	3b01      	subs	r3, #1
 8003442:	60a3      	str	r3, [r4, #8]
 8003444:	b9e9      	cbnz	r1, 8003482 <_puts_r+0x76>
 8003446:	2b00      	cmp	r3, #0
 8003448:	da2e      	bge.n	80034a8 <_puts_r+0x9c>
 800344a:	4622      	mov	r2, r4
 800344c:	210a      	movs	r1, #10
 800344e:	4628      	mov	r0, r5
 8003450:	f000 f949 	bl	80036e6 <__swbuf_r>
 8003454:	3001      	adds	r0, #1
 8003456:	d007      	beq.n	8003468 <_puts_r+0x5c>
 8003458:	250a      	movs	r5, #10
 800345a:	e007      	b.n	800346c <_puts_r+0x60>
 800345c:	4621      	mov	r1, r4
 800345e:	4628      	mov	r0, r5
 8003460:	f000 f97e 	bl	8003760 <__swsetup_r>
 8003464:	2800      	cmp	r0, #0
 8003466:	d0e7      	beq.n	8003438 <_puts_r+0x2c>
 8003468:	f04f 35ff 	mov.w	r5, #4294967295
 800346c:	6e63      	ldr	r3, [r4, #100]	; 0x64
 800346e:	07da      	lsls	r2, r3, #31
 8003470:	d405      	bmi.n	800347e <_puts_r+0x72>
 8003472:	89a3      	ldrh	r3, [r4, #12]
 8003474:	059b      	lsls	r3, r3, #22
 8003476:	d402      	bmi.n	800347e <_puts_r+0x72>
 8003478:	6da0      	ldr	r0, [r4, #88]	; 0x58
 800347a:	f000 fa43 	bl	8003904 <__retarget_lock_release_recursive>
 800347e:	4628      	mov	r0, r5
 8003480:	bd70      	pop	{r4, r5, r6, pc}
 8003482:	2b00      	cmp	r3, #0
 8003484:	da04      	bge.n	8003490 <_puts_r+0x84>
 8003486:	69a2      	ldr	r2, [r4, #24]
 8003488:	429a      	cmp	r2, r3
 800348a:	dc06      	bgt.n	800349a <_puts_r+0x8e>
 800348c:	290a      	cmp	r1, #10
 800348e:	d004      	beq.n	800349a <_puts_r+0x8e>
 8003490:	6823      	ldr	r3, [r4, #0]
 8003492:	1c5a      	adds	r2, r3, #1
 8003494:	6022      	str	r2, [r4, #0]
 8003496:	7019      	strb	r1, [r3, #0]
 8003498:	e7cf      	b.n	800343a <_puts_r+0x2e>
 800349a:	4622      	mov	r2, r4
 800349c:	4628      	mov	r0, r5
 800349e:	f000 f922 	bl	80036e6 <__swbuf_r>
 80034a2:	3001      	adds	r0, #1
 80034a4:	d1c9      	bne.n	800343a <_puts_r+0x2e>
 80034a6:	e7df      	b.n	8003468 <_puts_r+0x5c>
 80034a8:	6823      	ldr	r3, [r4, #0]
 80034aa:	250a      	movs	r5, #10
 80034ac:	1c5a      	adds	r2, r3, #1
 80034ae:	6022      	str	r2, [r4, #0]
 80034b0:	701d      	strb	r5, [r3, #0]
 80034b2:	e7db      	b.n	800346c <_puts_r+0x60>

080034b4 <puts>:
 80034b4:	4b02      	ldr	r3, [pc, #8]	; (80034c0 <puts+0xc>)
 80034b6:	4601      	mov	r1, r0
 80034b8:	6818      	ldr	r0, [r3, #0]
 80034ba:	f7ff bfa7 	b.w	800340c <_puts_r>
 80034be:	bf00      	nop
 80034c0:	20000064 	.word	0x20000064

080034c4 <setvbuf>:
 80034c4:	e92d 43f7 	stmdb	sp!, {r0, r1, r2, r4, r5, r6, r7, r8, r9, lr}
 80034c8:	461d      	mov	r5, r3
 80034ca:	4b54      	ldr	r3, [pc, #336]	; (800361c <setvbuf+0x158>)
 80034cc:	681f      	ldr	r7, [r3, #0]
 80034ce:	4604      	mov	r4, r0
 80034d0:	460e      	mov	r6, r1
 80034d2:	4690      	mov	r8, r2
 80034d4:	b127      	cbz	r7, 80034e0 <setvbuf+0x1c>
 80034d6:	6a3b      	ldr	r3, [r7, #32]
 80034d8:	b913      	cbnz	r3, 80034e0 <setvbuf+0x1c>
 80034da:	4638      	mov	r0, r7
 80034dc:	f7ff ff4e 	bl	800337c <__sinit>
 80034e0:	f1b8 0f02 	cmp.w	r8, #2
 80034e4:	d006      	beq.n	80034f4 <setvbuf+0x30>
 80034e6:	f1b8 0f01 	cmp.w	r8, #1
 80034ea:	f200 8094 	bhi.w	8003616 <setvbuf+0x152>
 80034ee:	2d00      	cmp	r5, #0
 80034f0:	f2c0 8091 	blt.w	8003616 <setvbuf+0x152>
 80034f4:	6e63      	ldr	r3, [r4, #100]	; 0x64
 80034f6:	07da      	lsls	r2, r3, #31
 80034f8:	d405      	bmi.n	8003506 <setvbuf+0x42>
 80034fa:	89a3      	ldrh	r3, [r4, #12]
 80034fc:	059b      	lsls	r3, r3, #22
 80034fe:	d402      	bmi.n	8003506 <setvbuf+0x42>
 8003500:	6da0      	ldr	r0, [r4, #88]	; 0x58
 8003502:	f000 f9fe 	bl	8003902 <__retarget_lock_acquire_recursive>
 8003506:	4621      	mov	r1, r4
 8003508:	4638      	mov	r0, r7
 800350a:	f000 ffaf 	bl	800446c <_fflush_r>
 800350e:	6b61      	ldr	r1, [r4, #52]	; 0x34
 8003510:	b141      	cbz	r1, 8003524 <setvbuf+0x60>
 8003512:	f104 0344 	add.w	r3, r4, #68	; 0x44
 8003516:	4299      	cmp	r1, r3
 8003518:	d002      	beq.n	8003520 <setvbuf+0x5c>
 800351a:	4638      	mov	r0, r7
 800351c:	f000 f9f4 	bl	8003908 <_free_r>
 8003520:	2300      	movs	r3, #0
 8003522:	6363      	str	r3, [r4, #52]	; 0x34
 8003524:	2300      	movs	r3, #0
 8003526:	61a3      	str	r3, [r4, #24]
 8003528:	6063      	str	r3, [r4, #4]
 800352a:	89a3      	ldrh	r3, [r4, #12]
 800352c:	0618      	lsls	r0, r3, #24
 800352e:	d503      	bpl.n	8003538 <setvbuf+0x74>
 8003530:	6921      	ldr	r1, [r4, #16]
 8003532:	4638      	mov	r0, r7
 8003534:	f000 f9e8 	bl	8003908 <_free_r>
 8003538:	89a3      	ldrh	r3, [r4, #12]
 800353a:	f423 634a 	bic.w	r3, r3, #3232	; 0xca0
 800353e:	f023 0303 	bic.w	r3, r3, #3
 8003542:	f1b8 0f02 	cmp.w	r8, #2
 8003546:	81a3      	strh	r3, [r4, #12]
 8003548:	d05f      	beq.n	800360a <setvbuf+0x146>
 800354a:	ab01      	add	r3, sp, #4
 800354c:	466a      	mov	r2, sp
 800354e:	4621      	mov	r1, r4
 8003550:	4638      	mov	r0, r7
 8003552:	f000 ffb3 	bl	80044bc <__swhatbuf_r>
 8003556:	89a3      	ldrh	r3, [r4, #12]
 8003558:	4318      	orrs	r0, r3
 800355a:	81a0      	strh	r0, [r4, #12]
 800355c:	bb2d      	cbnz	r5, 80035aa <setvbuf+0xe6>
 800355e:	9d00      	ldr	r5, [sp, #0]
 8003560:	4628      	mov	r0, r5
 8003562:	f000 fa1d 	bl	80039a0 <malloc>
 8003566:	4606      	mov	r6, r0
 8003568:	2800      	cmp	r0, #0
 800356a:	d150      	bne.n	800360e <setvbuf+0x14a>
 800356c:	f8dd 9000 	ldr.w	r9, [sp]
 8003570:	45a9      	cmp	r9, r5
 8003572:	d13e      	bne.n	80035f2 <setvbuf+0x12e>
 8003574:	f04f 35ff 	mov.w	r5, #4294967295
 8003578:	2200      	movs	r2, #0
 800357a:	60a2      	str	r2, [r4, #8]
 800357c:	f104 0247 	add.w	r2, r4, #71	; 0x47
 8003580:	6022      	str	r2, [r4, #0]
 8003582:	6122      	str	r2, [r4, #16]
 8003584:	2201      	movs	r2, #1
 8003586:	f9b4 300c 	ldrsh.w	r3, [r4, #12]
 800358a:	6162      	str	r2, [r4, #20]
 800358c:	6e62      	ldr	r2, [r4, #100]	; 0x64
 800358e:	f043 0302 	orr.w	r3, r3, #2
 8003592:	07d1      	lsls	r1, r2, #31
 8003594:	81a3      	strh	r3, [r4, #12]
 8003596:	d404      	bmi.n	80035a2 <setvbuf+0xde>
 8003598:	059b      	lsls	r3, r3, #22
 800359a:	d402      	bmi.n	80035a2 <setvbuf+0xde>
 800359c:	6da0      	ldr	r0, [r4, #88]	; 0x58
 800359e:	f000 f9b1 	bl	8003904 <__retarget_lock_release_recursive>
 80035a2:	4628      	mov	r0, r5
 80035a4:	b003      	add	sp, #12
 80035a6:	e8bd 83f0 	ldmia.w	sp!, {r4, r5, r6, r7, r8, r9, pc}
 80035aa:	2e00      	cmp	r6, #0
 80035ac:	d0d8      	beq.n	8003560 <setvbuf+0x9c>
 80035ae:	6a3b      	ldr	r3, [r7, #32]
 80035b0:	b913      	cbnz	r3, 80035b8 <setvbuf+0xf4>
 80035b2:	4638      	mov	r0, r7
 80035b4:	f7ff fee2 	bl	800337c <__sinit>
 80035b8:	f1b8 0f01 	cmp.w	r8, #1
 80035bc:	bf08      	it	eq
 80035be:	89a3      	ldrheq	r3, [r4, #12]
 80035c0:	6026      	str	r6, [r4, #0]
 80035c2:	bf04      	itt	eq
 80035c4:	f043 0301 	orreq.w	r3, r3, #1
 80035c8:	81a3      	strheq	r3, [r4, #12]
 80035ca:	89a3      	ldrh	r3, [r4, #12]
 80035cc:	f013 0208 	ands.w	r2, r3, #8
 80035d0:	e9c4 6504 	strd	r6, r5, [r4, #16]
 80035d4:	d01d      	beq.n	8003612 <setvbuf+0x14e>
 80035d6:	07da      	lsls	r2, r3, #31
 80035d8:	bf41      	itttt	mi
 80035da:	2200      	movmi	r2, #0
 80035dc:	426d      	negmi	r5, r5
 80035de:	60a2      	strmi	r2, [r4, #8]
 80035e0:	61a5      	strmi	r5, [r4, #24]
 80035e2:	bf58      	it	pl
 80035e4:	60a5      	strpl	r5, [r4, #8]
 80035e6:	6e65      	ldr	r5, [r4, #100]	; 0x64
 80035e8:	f015 0501 	ands.w	r5, r5, #1
 80035ec:	d0d4      	beq.n	8003598 <setvbuf+0xd4>
 80035ee:	2500      	movs	r5, #0
 80035f0:	e7d7      	b.n	80035a2 <setvbuf+0xde>
 80035f2:	4648      	mov	r0, r9
 80035f4:	f000 f9d4 	bl	80039a0 <malloc>
 80035f8:	4606      	mov	r6, r0
 80035fa:	2800      	cmp	r0, #0
 80035fc:	d0ba      	beq.n	8003574 <setvbuf+0xb0>
 80035fe:	89a3      	ldrh	r3, [r4, #12]
 8003600:	f043 0380 	orr.w	r3, r3, #128	; 0x80
 8003604:	81a3      	strh	r3, [r4, #12]
 8003606:	464d      	mov	r5, r9
 8003608:	e7d1      	b.n	80035ae <setvbuf+0xea>
 800360a:	2500      	movs	r5, #0
 800360c:	e7b4      	b.n	8003578 <setvbuf+0xb4>
 800360e:	46a9      	mov	r9, r5
 8003610:	e7f5      	b.n	80035fe <setvbuf+0x13a>
 8003612:	60a2      	str	r2, [r4, #8]
 8003614:	e7e7      	b.n	80035e6 <setvbuf+0x122>
 8003616:	f04f 35ff 	mov.w	r5, #4294967295
 800361a:	e7c2      	b.n	80035a2 <setvbuf+0xde>
 800361c:	20000064 	.word	0x20000064

08003620 <siprintf>:
 8003620:	b40e      	push	{r1, r2, r3}
 8003622:	b500      	push	{lr}
 8003624:	b09c      	sub	sp, #112	; 0x70
 8003626:	ab1d      	add	r3, sp, #116	; 0x74
 8003628:	9002      	str	r0, [sp, #8]
 800362a:	9006      	str	r0, [sp, #24]
 800362c:	f06f 4100 	mvn.w	r1, #2147483648	; 0x80000000
 8003630:	4809      	ldr	r0, [pc, #36]	; (8003658 <siprintf+0x38>)
 8003632:	9107      	str	r1, [sp, #28]
 8003634:	9104      	str	r1, [sp, #16]
 8003636:	4909      	ldr	r1, [pc, #36]	; (800365c <siprintf+0x3c>)
 8003638:	f853 2b04 	ldr.w	r2, [r3], #4
 800363c:	9105      	str	r1, [sp, #20]
 800363e:	6800      	ldr	r0, [r0, #0]
 8003640:	9301      	str	r3, [sp, #4]
 8003642:	a902      	add	r1, sp, #8
 8003644:	f000 faba 	bl	8003bbc <_svfiprintf_r>
 8003648:	9b02      	ldr	r3, [sp, #8]
 800364a:	2200      	movs	r2, #0
 800364c:	701a      	strb	r2, [r3, #0]
 800364e:	b01c      	add	sp, #112	; 0x70
 8003650:	f85d eb04 	ldr.w	lr, [sp], #4
 8003654:	b003      	add	sp, #12
 8003656:	4770      	bx	lr
 8003658:	20000064 	.word	0x20000064
 800365c:	ffff0208 	.word	0xffff0208

08003660 <__sread>:
 8003660:	b510      	push	{r4, lr}
 8003662:	460c      	mov	r4, r1
 8003664:	f9b1 100e 	ldrsh.w	r1, [r1, #14]
 8003668:	f000 f8fc 	bl	8003864 <_read_r>
 800366c:	2800      	cmp	r0, #0
 800366e:	bfab      	itete	ge
 8003670:	6d63      	ldrge	r3, [r4, #84]	; 0x54
 8003672:	89a3      	ldrhlt	r3, [r4, #12]
 8003674:	181b      	addge	r3, r3, r0
 8003676:	f423 5380 	biclt.w	r3, r3, #4096	; 0x1000
 800367a:	bfac      	ite	ge
 800367c:	6563      	strge	r3, [r4, #84]	; 0x54
 800367e:	81a3      	strhlt	r3, [r4, #12]
 8003680:	bd10      	pop	{r4, pc}

08003682 <__swrite>:
 8003682:	e92d 41f0 	stmdb	sp!, {r4, r5, r6, r7, r8, lr}
 8003686:	461f      	mov	r7, r3
 8003688:	898b      	ldrh	r3, [r1, #12]
 800368a:	05db      	lsls	r3, r3, #23
 800368c:	4605      	mov	r5, r0
 800368e:	460c      	mov	r4, r1
 8003690:	4616      	mov	r6, r2
 8003692:	d505      	bpl.n	80036a0 <__swrite+0x1e>
 8003694:	f9b1 100e 	ldrsh.w	r1, [r1, #14]
 8003698:	2302      	movs	r3, #2
 800369a:	2200      	movs	r2, #0
 800369c:	f000 f8d0 	bl	8003840 <_lseek_r>
 80036a0:	89a3      	ldrh	r3, [r4, #12]
 80036a2:	f9b4 100e 	ldrsh.w	r1, [r4, #14]
 80036a6:	f423 5380 	bic.w	r3, r3, #4096	; 0x1000
 80036aa:	81a3      	strh	r3, [r4, #12]
 80036ac:	4632      	mov	r2, r6
 80036ae:	463b      	mov	r3, r7
 80036b0:	4628      	mov	r0, r5
 80036b2:	e8bd 41f0 	ldmia.w	sp!, {r4, r5, r6, r7, r8, lr}
 80036b6:	f000 b8e7 	b.w	8003888 <_write_r>

080036ba <__sseek>:
 80036ba:	b510      	push	{r4, lr}
 80036bc:	460c      	mov	r4, r1
 80036be:	f9b1 100e 	ldrsh.w	r1, [r1, #14]
 80036c2:	f000 f8bd 	bl	8003840 <_lseek_r>
 80036c6:	1c43      	adds	r3, r0, #1
 80036c8:	89a3      	ldrh	r3, [r4, #12]
 80036ca:	bf15      	itete	ne
 80036cc:	6560      	strne	r0, [r4, #84]	; 0x54
 80036ce:	f423 5380 	biceq.w	r3, r3, #4096	; 0x1000
 80036d2:	f443 5380 	orrne.w	r3, r3, #4096	; 0x1000
 80036d6:	81a3      	strheq	r3, [r4, #12]
 80036d8:	bf18      	it	ne
 80036da:	81a3      	strhne	r3, [r4, #12]
 80036dc:	bd10      	pop	{r4, pc}

080036de <__sclose>:
 80036de:	f9b1 100e 	ldrsh.w	r1, [r1, #14]
 80036e2:	f000 b89d 	b.w	8003820 <_close_r>

080036e6 <__swbuf_r>:
 80036e6:	b5f8      	push	{r3, r4, r5, r6, r7, lr}
 80036e8:	460e      	mov	r6, r1
 80036ea:	4614      	mov	r4, r2
 80036ec:	4605      	mov	r5, r0
 80036ee:	b118      	cbz	r0, 80036f8 <__swbuf_r+0x12>
 80036f0:	6a03      	ldr	r3, [r0, #32]
 80036f2:	b90b      	cbnz	r3, 80036f8 <__swbuf_r+0x12>
 80036f4:	f7ff fe42 	bl	800337c <__sinit>
 80036f8:	69a3      	ldr	r3, [r4, #24]
 80036fa:	60a3      	str	r3, [r4, #8]
 80036fc:	89a3      	ldrh	r3, [r4, #12]
 80036fe:	071a      	lsls	r2, r3, #28
 8003700:	d525      	bpl.n	800374e <__swbuf_r+0x68>
 8003702:	6923      	ldr	r3, [r4, #16]
 8003704:	b31b      	cbz	r3, 800374e <__swbuf_r+0x68>
 8003706:	6823      	ldr	r3, [r4, #0]
 8003708:	6922      	ldr	r2, [r4, #16]
 800370a:	1a98      	subs	r0, r3, r2
 800370c:	6963      	ldr	r3, [r4, #20]
 800370e:	b2f6      	uxtb	r6, r6
 8003710:	4283      	cmp	r3, r0
 8003712:	4637      	mov	r7, r6
 8003714:	dc04      	bgt.n	8003720 <__swbuf_r+0x3a>
 8003716:	4621      	mov	r1, r4
 8003718:	4628      	mov	r0, r5
 800371a:	f000 fea7 	bl	800446c <_fflush_r>
 800371e:	b9e0      	cbnz	r0, 800375a <__swbuf_r+0x74>
 8003720:	68a3      	ldr	r3, [r4, #8]
 8003722:	3b01      	subs	r3, #1
 8003724:	60a3      	str	r3, [r4, #8]
 8003726:	6823      	ldr	r3, [r4, #0]
 8003728:	1c5a      	adds	r2, r3, #1
 800372a:	6022      	str	r2, [r4, #0]
 800372c:	701e      	strb	r6, [r3, #0]
 800372e:	6962      	ldr	r2, [r4, #20]
 8003730:	1c43      	adds	r3, r0, #1
 8003732:	429a      	cmp	r2, r3
 8003734:	d004      	beq.n	8003740 <__swbuf_r+0x5a>
 8003736:	89a3      	ldrh	r3, [r4, #12]
 8003738:	07db      	lsls	r3, r3, #31
 800373a:	d506      	bpl.n	800374a <__swbuf_r+0x64>
 800373c:	2e0a      	cmp	r6, #10
 800373e:	d104      	bne.n	800374a <__swbuf_r+0x64>
 8003740:	4621      	mov	r1, r4
 8003742:	4628      	mov	r0, r5
 8003744:	f000 fe92 	bl	800446c <_fflush_r>
 8003748:	b938      	cbnz	r0, 800375a <__swbuf_r+0x74>
 800374a:	4638      	mov	r0, r7
 800374c:	bdf8      	pop	{r3, r4, r5, r6, r7, pc}
 800374e:	4621      	mov	r1, r4
 8003750:	4628      	mov	r0, r5
 8003752:	f000 f805 	bl	8003760 <__swsetup_r>
 8003756:	2800      	cmp	r0, #0
 8003758:	d0d5      	beq.n	8003706 <__swbuf_r+0x20>
 800375a:	f04f 37ff 	mov.w	r7, #4294967295
 800375e:	e7f4      	b.n	800374a <__swbuf_r+0x64>

08003760 <__swsetup_r>:
 8003760:	b538      	push	{r3, r4, r5, lr}
 8003762:	4b2a      	ldr	r3, [pc, #168]	; (800380c <__swsetup_r+0xac>)
 8003764:	4605      	mov	r5, r0
 8003766:	6818      	ldr	r0, [r3, #0]
 8003768:	460c      	mov	r4, r1
 800376a:	b118      	cbz	r0, 8003774 <__swsetup_r+0x14>
 800376c:	6a03      	ldr	r3, [r0, #32]
 800376e:	b90b      	cbnz	r3, 8003774 <__swsetup_r+0x14>
 8003770:	f7ff fe04 	bl	800337c <__sinit>
 8003774:	89a3      	ldrh	r3, [r4, #12]
 8003776:	f9b4 200c 	ldrsh.w	r2, [r4, #12]
 800377a:	0718      	lsls	r0, r3, #28
 800377c:	d422      	bmi.n	80037c4 <__swsetup_r+0x64>
 800377e:	06d9      	lsls	r1, r3, #27
 8003780:	d407      	bmi.n	8003792 <__swsetup_r+0x32>
 8003782:	2309      	movs	r3, #9
 8003784:	602b      	str	r3, [r5, #0]
 8003786:	f042 0340 	orr.w	r3, r2, #64	; 0x40
 800378a:	81a3      	strh	r3, [r4, #12]
 800378c:	f04f 30ff 	mov.w	r0, #4294967295
 8003790:	e034      	b.n	80037fc <__swsetup_r+0x9c>
 8003792:	0758      	lsls	r0, r3, #29
 8003794:	d512      	bpl.n	80037bc <__swsetup_r+0x5c>
 8003796:	6b61      	ldr	r1, [r4, #52]	; 0x34
 8003798:	b141      	cbz	r1, 80037ac <__swsetup_r+0x4c>
 800379a:	f104 0344 	add.w	r3, r4, #68	; 0x44
 800379e:	4299      	cmp	r1, r3
 80037a0:	d002      	beq.n	80037a8 <__swsetup_r+0x48>
 80037a2:	4628      	mov	r0, r5
 80037a4:	f000 f8b0 	bl	8003908 <_free_r>
 80037a8:	2300      	movs	r3, #0
 80037aa:	6363      	str	r3, [r4, #52]	; 0x34
 80037ac:	89a3      	ldrh	r3, [r4, #12]
 80037ae:	f023 0324 	bic.w	r3, r3, #36	; 0x24
 80037b2:	81a3      	strh	r3, [r4, #12]
 80037b4:	2300      	movs	r3, #0
 80037b6:	6063      	str	r3, [r4, #4]
 80037b8:	6923      	ldr	r3, [r4, #16]
 80037ba:	6023      	str	r3, [r4, #0]
 80037bc:	89a3      	ldrh	r3, [r4, #12]
 80037be:	f043 0308 	orr.w	r3, r3, #8
 80037c2:	81a3      	strh	r3, [r4, #12]
 80037c4:	6923      	ldr	r3, [r4, #16]
 80037c6:	b94b      	cbnz	r3, 80037dc <__swsetup_r+0x7c>
 80037c8:	89a3      	ldrh	r3, [r4, #12]
 80037ca:	f403 7320 	and.w	r3, r3, #640	; 0x280
 80037ce:	f5b3 7f00 	cmp.w	r3, #512	; 0x200
 80037d2:	d003      	beq.n	80037dc <__swsetup_r+0x7c>
 80037d4:	4621      	mov	r1, r4
 80037d6:	4628      	mov	r0, r5
 80037d8:	f000 fe96 	bl	8004508 <__smakebuf_r>
 80037dc:	89a0      	ldrh	r0, [r4, #12]
 80037de:	f9b4 200c 	ldrsh.w	r2, [r4, #12]
 80037e2:	f010 0301 	ands.w	r3, r0, #1
 80037e6:	d00a      	beq.n	80037fe <__swsetup_r+0x9e>
 80037e8:	2300      	movs	r3, #0
 80037ea:	60a3      	str	r3, [r4, #8]
 80037ec:	6963      	ldr	r3, [r4, #20]
 80037ee:	425b      	negs	r3, r3
 80037f0:	61a3      	str	r3, [r4, #24]
 80037f2:	6923      	ldr	r3, [r4, #16]
 80037f4:	b943      	cbnz	r3, 8003808 <__swsetup_r+0xa8>
 80037f6:	f010 0080 	ands.w	r0, r0, #128	; 0x80
 80037fa:	d1c4      	bne.n	8003786 <__swsetup_r+0x26>
 80037fc:	bd38      	pop	{r3, r4, r5, pc}
 80037fe:	0781      	lsls	r1, r0, #30
 8003800:	bf58      	it	pl
 8003802:	6963      	ldrpl	r3, [r4, #20]
 8003804:	60a3      	str	r3, [r4, #8]
 8003806:	e7f4      	b.n	80037f2 <__swsetup_r+0x92>
 8003808:	2000      	movs	r0, #0
 800380a:	e7f7      	b.n	80037fc <__swsetup_r+0x9c>
 800380c:	20000064 	.word	0x20000064

08003810 <memset>:
 8003810:	4402      	add	r2, r0
 8003812:	4603      	mov	r3, r0
 8003814:	4293      	cmp	r3, r2
 8003816:	d100      	bne.n	800381a <memset+0xa>
 8003818:	4770      	bx	lr
 800381a:	f803 1b01 	strb.w	r1, [r3], #1
 800381e:	e7f9      	b.n	8003814 <memset+0x4>

08003820 <_close_r>:
 8003820:	b538      	push	{r3, r4, r5, lr}
 8003822:	4d06      	ldr	r5, [pc, #24]	; (800383c <_close_r+0x1c>)
 8003824:	2300      	movs	r3, #0
 8003826:	4604      	mov	r4, r0
 8003828:	4608      	mov	r0, r1
 800382a:	602b      	str	r3, [r5, #0]
 800382c:	f7fd f9f9 	bl	8000c22 <_close>
 8003830:	1c43      	adds	r3, r0, #1
 8003832:	d102      	bne.n	800383a <_close_r+0x1a>
 8003834:	682b      	ldr	r3, [r5, #0]
 8003836:	b103      	cbz	r3, 800383a <_close_r+0x1a>
 8003838:	6023      	str	r3, [r4, #0]
 800383a:	bd38      	pop	{r3, r4, r5, pc}
 800383c:	20000258 	.word	0x20000258

08003840 <_lseek_r>:
 8003840:	b538      	push	{r3, r4, r5, lr}
 8003842:	4d07      	ldr	r5, [pc, #28]	; (8003860 <_lseek_r+0x20>)
 8003844:	4604      	mov	r4, r0
 8003846:	4608      	mov	r0, r1
 8003848:	4611      	mov	r1, r2
 800384a:	2200      	movs	r2, #0
 800384c:	602a      	str	r2, [r5, #0]
 800384e:	461a      	mov	r2, r3
 8003850:	f7fd fa0e 	bl	8000c70 <_lseek>
 8003854:	1c43      	adds	r3, r0, #1
 8003856:	d102      	bne.n	800385e <_lseek_r+0x1e>
 8003858:	682b      	ldr	r3, [r5, #0]
 800385a:	b103      	cbz	r3, 800385e <_lseek_r+0x1e>
 800385c:	6023      	str	r3, [r4, #0]
 800385e:	bd38      	pop	{r3, r4, r5, pc}
 8003860:	20000258 	.word	0x20000258

08003864 <_read_r>:
 8003864:	b538      	push	{r3, r4, r5, lr}
 8003866:	4d07      	ldr	r5, [pc, #28]	; (8003884 <_read_r+0x20>)
 8003868:	4604      	mov	r4, r0
 800386a:	4608      	mov	r0, r1
 800386c:	4611      	mov	r1, r2
 800386e:	2200      	movs	r2, #0
 8003870:	602a      	str	r2, [r5, #0]
 8003872:	461a      	mov	r2, r3
 8003874:	f7fd f99c 	bl	8000bb0 <_read>
 8003878:	1c43      	adds	r3, r0, #1
 800387a:	d102      	bne.n	8003882 <_read_r+0x1e>
 800387c:	682b      	ldr	r3, [r5, #0]
 800387e:	b103      	cbz	r3, 8003882 <_read_r+0x1e>
 8003880:	6023      	str	r3, [r4, #0]
 8003882:	bd38      	pop	{r3, r4, r5, pc}
 8003884:	20000258 	.word	0x20000258

08003888 <_write_r>:
 8003888:	b538      	push	{r3, r4, r5, lr}
 800388a:	4d07      	ldr	r5, [pc, #28]	; (80038a8 <_write_r+0x20>)
 800388c:	4604      	mov	r4, r0
 800388e:	4608      	mov	r0, r1
 8003890:	4611      	mov	r1, r2
 8003892:	2200      	movs	r2, #0
 8003894:	602a      	str	r2, [r5, #0]
 8003896:	461a      	mov	r2, r3
 8003898:	f7fd f9a7 	bl	8000bea <_write>
 800389c:	1c43      	adds	r3, r0, #1
 800389e:	d102      	bne.n	80038a6 <_write_r+0x1e>
 80038a0:	682b      	ldr	r3, [r5, #0]
 80038a2:	b103      	cbz	r3, 80038a6 <_write_r+0x1e>
 80038a4:	6023      	str	r3, [r4, #0]
 80038a6:	bd38      	pop	{r3, r4, r5, pc}
 80038a8:	20000258 	.word	0x20000258

080038ac <__errno>:
 80038ac:	4b01      	ldr	r3, [pc, #4]	; (80038b4 <__errno+0x8>)
 80038ae:	6818      	ldr	r0, [r3, #0]
 80038b0:	4770      	bx	lr
 80038b2:	bf00      	nop
 80038b4:	20000064 	.word	0x20000064

080038b8 <__libc_init_array>:
 80038b8:	b570      	push	{r4, r5, r6, lr}
 80038ba:	4d0d      	ldr	r5, [pc, #52]	; (80038f0 <__libc_init_array+0x38>)
 80038bc:	4c0d      	ldr	r4, [pc, #52]	; (80038f4 <__libc_init_array+0x3c>)
 80038be:	1b64      	subs	r4, r4, r5
 80038c0:	10a4      	asrs	r4, r4, #2
 80038c2:	2600      	movs	r6, #0
 80038c4:	42a6      	cmp	r6, r4
 80038c6:	d109      	bne.n	80038dc <__libc_init_array+0x24>
 80038c8:	4d0b      	ldr	r5, [pc, #44]	; (80038f8 <__libc_init_array+0x40>)
 80038ca:	4c0c      	ldr	r4, [pc, #48]	; (80038fc <__libc_init_array+0x44>)
 80038cc:	f000 feea 	bl	80046a4 <_init>
 80038d0:	1b64      	subs	r4, r4, r5
 80038d2:	10a4      	asrs	r4, r4, #2
 80038d4:	2600      	movs	r6, #0
 80038d6:	42a6      	cmp	r6, r4
 80038d8:	d105      	bne.n	80038e6 <__libc_init_array+0x2e>
 80038da:	bd70      	pop	{r4, r5, r6, pc}
 80038dc:	f855 3b04 	ldr.w	r3, [r5], #4
 80038e0:	4798      	blx	r3
 80038e2:	3601      	adds	r6, #1
 80038e4:	e7ee      	b.n	80038c4 <__libc_init_array+0xc>
 80038e6:	f855 3b04 	ldr.w	r3, [r5], #4
 80038ea:	4798      	blx	r3
 80038ec:	3601      	adds	r6, #1
 80038ee:	e7f2      	b.n	80038d6 <__libc_init_array+0x1e>
 80038f0:	08004784 	.word	0x08004784
 80038f4:	08004784 	.word	0x08004784
 80038f8:	08004784 	.word	0x08004784
 80038fc:	08004788 	.word	0x08004788

08003900 <__retarget_lock_init_recursive>:
 8003900:	4770      	bx	lr

08003902 <__retarget_lock_acquire_recursive>:
 8003902:	4770      	bx	lr

08003904 <__retarget_lock_release_recursive>:
 8003904:	4770      	bx	lr
	...

08003908 <_free_r>:
 8003908:	b537      	push	{r0, r1, r2, r4, r5, lr}
 800390a:	2900      	cmp	r1, #0
 800390c:	d044      	beq.n	8003998 <_free_r+0x90>
 800390e:	f851 3c04 	ldr.w	r3, [r1, #-4]
 8003912:	9001      	str	r0, [sp, #4]
 8003914:	2b00      	cmp	r3, #0
 8003916:	f1a1 0404 	sub.w	r4, r1, #4
 800391a:	bfb8      	it	lt
 800391c:	18e4      	addlt	r4, r4, r3
 800391e:	f000 f8e7 	bl	8003af0 <__malloc_lock>
 8003922:	4a1e      	ldr	r2, [pc, #120]	; (800399c <_free_r+0x94>)
 8003924:	9801      	ldr	r0, [sp, #4]
 8003926:	6813      	ldr	r3, [r2, #0]
 8003928:	b933      	cbnz	r3, 8003938 <_free_r+0x30>
 800392a:	6063      	str	r3, [r4, #4]
 800392c:	6014      	str	r4, [r2, #0]
 800392e:	b003      	add	sp, #12
 8003930:	e8bd 4030 	ldmia.w	sp!, {r4, r5, lr}
 8003934:	f000 b8e2 	b.w	8003afc <__malloc_unlock>
 8003938:	42a3      	cmp	r3, r4
 800393a:	d908      	bls.n	800394e <_free_r+0x46>
 800393c:	6825      	ldr	r5, [r4, #0]
 800393e:	1961      	adds	r1, r4, r5
 8003940:	428b      	cmp	r3, r1
 8003942:	bf01      	itttt	eq
 8003944:	6819      	ldreq	r1, [r3, #0]
 8003946:	685b      	ldreq	r3, [r3, #4]
 8003948:	1949      	addeq	r1, r1, r5
 800394a:	6021      	streq	r1, [r4, #0]
 800394c:	e7ed      	b.n	800392a <_free_r+0x22>
 800394e:	461a      	mov	r2, r3
 8003950:	685b      	ldr	r3, [r3, #4]
 8003952:	b10b      	cbz	r3, 8003958 <_free_r+0x50>
 8003954:	42a3      	cmp	r3, r4
 8003956:	d9fa      	bls.n	800394e <_free_r+0x46>
 8003958:	6811      	ldr	r1, [r2, #0]
 800395a:	1855      	adds	r5, r2, r1
 800395c:	42a5      	cmp	r5, r4
 800395e:	d10b      	bne.n	8003978 <_free_r+0x70>
 8003960:	6824      	ldr	r4, [r4, #0]
 8003962:	4421      	add	r1, r4
 8003964:	1854      	adds	r4, r2, r1
 8003966:	42a3      	cmp	r3, r4
 8003968:	6011      	str	r1, [r2, #0]
 800396a:	d1e0      	bne.n	800392e <_free_r+0x26>
 800396c:	681c      	ldr	r4, [r3, #0]
 800396e:	685b      	ldr	r3, [r3, #4]
 8003970:	6053      	str	r3, [r2, #4]
 8003972:	440c      	add	r4, r1
 8003974:	6014      	str	r4, [r2, #0]
 8003976:	e7da      	b.n	800392e <_free_r+0x26>
 8003978:	d902      	bls.n	8003980 <_free_r+0x78>
 800397a:	230c      	movs	r3, #12
 800397c:	6003      	str	r3, [r0, #0]
 800397e:	e7d6      	b.n	800392e <_free_r+0x26>
 8003980:	6825      	ldr	r5, [r4, #0]
 8003982:	1961      	adds	r1, r4, r5
 8003984:	428b      	cmp	r3, r1
 8003986:	bf04      	itt	eq
 8003988:	6819      	ldreq	r1, [r3, #0]
 800398a:	685b      	ldreq	r3, [r3, #4]
 800398c:	6063      	str	r3, [r4, #4]
 800398e:	bf04      	itt	eq
 8003990:	1949      	addeq	r1, r1, r5
 8003992:	6021      	streq	r1, [r4, #0]
 8003994:	6054      	str	r4, [r2, #4]
 8003996:	e7ca      	b.n	800392e <_free_r+0x26>
 8003998:	b003      	add	sp, #12
 800399a:	bd30      	pop	{r4, r5, pc}
 800399c:	20000260 	.word	0x20000260

080039a0 <malloc>:
 80039a0:	4b02      	ldr	r3, [pc, #8]	; (80039ac <malloc+0xc>)
 80039a2:	4601      	mov	r1, r0
 80039a4:	6818      	ldr	r0, [r3, #0]
 80039a6:	f000 b823 	b.w	80039f0 <_malloc_r>
 80039aa:	bf00      	nop
 80039ac:	20000064 	.word	0x20000064

080039b0 <sbrk_aligned>:
 80039b0:	b570      	push	{r4, r5, r6, lr}
 80039b2:	4e0e      	ldr	r6, [pc, #56]	; (80039ec <sbrk_aligned+0x3c>)
 80039b4:	460c      	mov	r4, r1
 80039b6:	6831      	ldr	r1, [r6, #0]
 80039b8:	4605      	mov	r5, r0
 80039ba:	b911      	cbnz	r1, 80039c2 <sbrk_aligned+0x12>
 80039bc:	f000 fe1c 	bl	80045f8 <_sbrk_r>
 80039c0:	6030      	str	r0, [r6, #0]
 80039c2:	4621      	mov	r1, r4
 80039c4:	4628      	mov	r0, r5
 80039c6:	f000 fe17 	bl	80045f8 <_sbrk_r>
 80039ca:	1c43      	adds	r3, r0, #1
 80039cc:	d00a      	beq.n	80039e4 <sbrk_aligned+0x34>
 80039ce:	1cc4      	adds	r4, r0, #3
 80039d0:	f024 0403 	bic.w	r4, r4, #3
 80039d4:	42a0      	cmp	r0, r4
 80039d6:	d007      	beq.n	80039e8 <sbrk_aligned+0x38>
 80039d8:	1a21      	subs	r1, r4, r0
 80039da:	4628      	mov	r0, r5
 80039dc:	f000 fe0c 	bl	80045f8 <_sbrk_r>
 80039e0:	3001      	adds	r0, #1
 80039e2:	d101      	bne.n	80039e8 <sbrk_aligned+0x38>
 80039e4:	f04f 34ff 	mov.w	r4, #4294967295
 80039e8:	4620      	mov	r0, r4
 80039ea:	bd70      	pop	{r4, r5, r6, pc}
 80039ec:	20000264 	.word	0x20000264

080039f0 <_malloc_r>:
 80039f0:	e92d 43f8 	stmdb	sp!, {r3, r4, r5, r6, r7, r8, r9, lr}
 80039f4:	1ccd      	adds	r5, r1, #3
 80039f6:	f025 0503 	bic.w	r5, r5, #3
 80039fa:	3508      	adds	r5, #8
 80039fc:	2d0c      	cmp	r5, #12
 80039fe:	bf38      	it	cc
 8003a00:	250c      	movcc	r5, #12
 8003a02:	2d00      	cmp	r5, #0
 8003a04:	4607      	mov	r7, r0
 8003a06:	db01      	blt.n	8003a0c <_malloc_r+0x1c>
 8003a08:	42a9      	cmp	r1, r5
 8003a0a:	d905      	bls.n	8003a18 <_malloc_r+0x28>
 8003a0c:	230c      	movs	r3, #12
 8003a0e:	603b      	str	r3, [r7, #0]
 8003a10:	2600      	movs	r6, #0
 8003a12:	4630      	mov	r0, r6
 8003a14:	e8bd 83f8 	ldmia.w	sp!, {r3, r4, r5, r6, r7, r8, r9, pc}
 8003a18:	f8df 80d0 	ldr.w	r8, [pc, #208]	; 8003aec <_malloc_r+0xfc>
 8003a1c:	f000 f868 	bl	8003af0 <__malloc_lock>
 8003a20:	f8d8 3000 	ldr.w	r3, [r8]
 8003a24:	461c      	mov	r4, r3
 8003a26:	bb5c      	cbnz	r4, 8003a80 <_malloc_r+0x90>
 8003a28:	4629      	mov	r1, r5
 8003a2a:	4638      	mov	r0, r7
 8003a2c:	f7ff ffc0 	bl	80039b0 <sbrk_aligned>
 8003a30:	1c43      	adds	r3, r0, #1
 8003a32:	4604      	mov	r4, r0
 8003a34:	d155      	bne.n	8003ae2 <_malloc_r+0xf2>
 8003a36:	f8d8 4000 	ldr.w	r4, [r8]
 8003a3a:	4626      	mov	r6, r4
 8003a3c:	2e00      	cmp	r6, #0
 8003a3e:	d145      	bne.n	8003acc <_malloc_r+0xdc>
 8003a40:	2c00      	cmp	r4, #0
 8003a42:	d048      	beq.n	8003ad6 <_malloc_r+0xe6>
 8003a44:	6823      	ldr	r3, [r4, #0]
 8003a46:	4631      	mov	r1, r6
 8003a48:	4638      	mov	r0, r7
 8003a4a:	eb04 0903 	add.w	r9, r4, r3
 8003a4e:	f000 fdd3 	bl	80045f8 <_sbrk_r>
 8003a52:	4581      	cmp	r9, r0
 8003a54:	d13f      	bne.n	8003ad6 <_malloc_r+0xe6>
 8003a56:	6821      	ldr	r1, [r4, #0]
 8003a58:	1a6d      	subs	r5, r5, r1
 8003a5a:	4629      	mov	r1, r5
 8003a5c:	4638      	mov	r0, r7
 8003a5e:	f7ff ffa7 	bl	80039b0 <sbrk_aligned>
 8003a62:	3001      	adds	r0, #1
 8003a64:	d037      	beq.n	8003ad6 <_malloc_r+0xe6>
 8003a66:	6823      	ldr	r3, [r4, #0]
 8003a68:	442b      	add	r3, r5
 8003a6a:	6023      	str	r3, [r4, #0]
 8003a6c:	f8d8 3000 	ldr.w	r3, [r8]
 8003a70:	2b00      	cmp	r3, #0
 8003a72:	d038      	beq.n	8003ae6 <_malloc_r+0xf6>
 8003a74:	685a      	ldr	r2, [r3, #4]
 8003a76:	42a2      	cmp	r2, r4
 8003a78:	d12b      	bne.n	8003ad2 <_malloc_r+0xe2>
 8003a7a:	2200      	movs	r2, #0
 8003a7c:	605a      	str	r2, [r3, #4]
 8003a7e:	e00f      	b.n	8003aa0 <_malloc_r+0xb0>
 8003a80:	6822      	ldr	r2, [r4, #0]
 8003a82:	1b52      	subs	r2, r2, r5
 8003a84:	d41f      	bmi.n	8003ac6 <_malloc_r+0xd6>
 8003a86:	2a0b      	cmp	r2, #11
 8003a88:	d917      	bls.n	8003aba <_malloc_r+0xca>
 8003a8a:	1961      	adds	r1, r4, r5
 8003a8c:	42a3      	cmp	r3, r4
 8003a8e:	6025      	str	r5, [r4, #0]
 8003a90:	bf18      	it	ne
 8003a92:	6059      	strne	r1, [r3, #4]
 8003a94:	6863      	ldr	r3, [r4, #4]
 8003a96:	bf08      	it	eq
 8003a98:	f8c8 1000 	streq.w	r1, [r8]
 8003a9c:	5162      	str	r2, [r4, r5]
 8003a9e:	604b      	str	r3, [r1, #4]
 8003aa0:	4638      	mov	r0, r7
 8003aa2:	f104 060b 	add.w	r6, r4, #11
 8003aa6:	f000 f829 	bl	8003afc <__malloc_unlock>
 8003aaa:	f026 0607 	bic.w	r6, r6, #7
 8003aae:	1d23      	adds	r3, r4, #4
 8003ab0:	1af2      	subs	r2, r6, r3
 8003ab2:	d0ae      	beq.n	8003a12 <_malloc_r+0x22>
 8003ab4:	1b9b      	subs	r3, r3, r6
 8003ab6:	50a3      	str	r3, [r4, r2]
 8003ab8:	e7ab      	b.n	8003a12 <_malloc_r+0x22>
 8003aba:	42a3      	cmp	r3, r4
 8003abc:	6862      	ldr	r2, [r4, #4]
 8003abe:	d1dd      	bne.n	8003a7c <_malloc_r+0x8c>
 8003ac0:	f8c8 2000 	str.w	r2, [r8]
 8003ac4:	e7ec      	b.n	8003aa0 <_malloc_r+0xb0>
 8003ac6:	4623      	mov	r3, r4
 8003ac8:	6864      	ldr	r4, [r4, #4]
 8003aca:	e7ac      	b.n	8003a26 <_malloc_r+0x36>
 8003acc:	4634      	mov	r4, r6
 8003ace:	6876      	ldr	r6, [r6, #4]
 8003ad0:	e7b4      	b.n	8003a3c <_malloc_r+0x4c>
 8003ad2:	4613      	mov	r3, r2
 8003ad4:	e7cc      	b.n	8003a70 <_malloc_r+0x80>
 8003ad6:	230c      	movs	r3, #12
 8003ad8:	603b      	str	r3, [r7, #0]
 8003ada:	4638      	mov	r0, r7
 8003adc:	f000 f80e 	bl	8003afc <__malloc_unlock>
 8003ae0:	e797      	b.n	8003a12 <_malloc_r+0x22>
 8003ae2:	6025      	str	r5, [r4, #0]
 8003ae4:	e7dc      	b.n	8003aa0 <_malloc_r+0xb0>
 8003ae6:	605b      	str	r3, [r3, #4]
 8003ae8:	deff      	udf	#255	; 0xff
 8003aea:	bf00      	nop
 8003aec:	20000260 	.word	0x20000260

08003af0 <__malloc_lock>:
 8003af0:	4801      	ldr	r0, [pc, #4]	; (8003af8 <__malloc_lock+0x8>)
 8003af2:	f7ff bf06 	b.w	8003902 <__retarget_lock_acquire_recursive>
 8003af6:	bf00      	nop
 8003af8:	2000025c 	.word	0x2000025c

08003afc <__malloc_unlock>:
 8003afc:	4801      	ldr	r0, [pc, #4]	; (8003b04 <__malloc_unlock+0x8>)
 8003afe:	f7ff bf01 	b.w	8003904 <__retarget_lock_release_recursive>
 8003b02:	bf00      	nop
 8003b04:	2000025c 	.word	0x2000025c

08003b08 <__ssputs_r>:
 8003b08:	e92d 47f0 	stmdb	sp!, {r4, r5, r6, r7, r8, r9, sl, lr}
 8003b0c:	688e      	ldr	r6, [r1, #8]
 8003b0e:	461f      	mov	r7, r3
 8003b10:	42be      	cmp	r6, r7
 8003b12:	680b      	ldr	r3, [r1, #0]
 8003b14:	4682      	mov	sl, r0
 8003b16:	460c      	mov	r4, r1
 8003b18:	4690      	mov	r8, r2
 8003b1a:	d82c      	bhi.n	8003b76 <__ssputs_r+0x6e>
 8003b1c:	898a      	ldrh	r2, [r1, #12]
 8003b1e:	f412 6f90 	tst.w	r2, #1152	; 0x480
 8003b22:	d026      	beq.n	8003b72 <__ssputs_r+0x6a>
 8003b24:	6965      	ldr	r5, [r4, #20]
 8003b26:	6909      	ldr	r1, [r1, #16]
 8003b28:	eb05 0545 	add.w	r5, r5, r5, lsl #1
 8003b2c:	eba3 0901 	sub.w	r9, r3, r1
 8003b30:	eb05 75d5 	add.w	r5, r5, r5, lsr #31
 8003b34:	1c7b      	adds	r3, r7, #1
 8003b36:	444b      	add	r3, r9
 8003b38:	106d      	asrs	r5, r5, #1
 8003b3a:	429d      	cmp	r5, r3
 8003b3c:	bf38      	it	cc
 8003b3e:	461d      	movcc	r5, r3
 8003b40:	0553      	lsls	r3, r2, #21
 8003b42:	d527      	bpl.n	8003b94 <__ssputs_r+0x8c>
 8003b44:	4629      	mov	r1, r5
 8003b46:	f7ff ff53 	bl	80039f0 <_malloc_r>
 8003b4a:	4606      	mov	r6, r0
 8003b4c:	b360      	cbz	r0, 8003ba8 <__ssputs_r+0xa0>
 8003b4e:	6921      	ldr	r1, [r4, #16]
 8003b50:	464a      	mov	r2, r9
 8003b52:	f000 fd61 	bl	8004618 <memcpy>
 8003b56:	89a3      	ldrh	r3, [r4, #12]
 8003b58:	f423 6390 	bic.w	r3, r3, #1152	; 0x480
 8003b5c:	f043 0380 	orr.w	r3, r3, #128	; 0x80
 8003b60:	81a3      	strh	r3, [r4, #12]
 8003b62:	6126      	str	r6, [r4, #16]
 8003b64:	6165      	str	r5, [r4, #20]
 8003b66:	444e      	add	r6, r9
 8003b68:	eba5 0509 	sub.w	r5, r5, r9
 8003b6c:	6026      	str	r6, [r4, #0]
 8003b6e:	60a5      	str	r5, [r4, #8]
 8003b70:	463e      	mov	r6, r7
 8003b72:	42be      	cmp	r6, r7
 8003b74:	d900      	bls.n	8003b78 <__ssputs_r+0x70>
 8003b76:	463e      	mov	r6, r7
 8003b78:	6820      	ldr	r0, [r4, #0]
 8003b7a:	4632      	mov	r2, r6
 8003b7c:	4641      	mov	r1, r8
 8003b7e:	f000 fcff 	bl	8004580 <memmove>
 8003b82:	68a3      	ldr	r3, [r4, #8]
 8003b84:	1b9b      	subs	r3, r3, r6
 8003b86:	60a3      	str	r3, [r4, #8]
 8003b88:	6823      	ldr	r3, [r4, #0]
 8003b8a:	4433      	add	r3, r6
 8003b8c:	6023      	str	r3, [r4, #0]
 8003b8e:	2000      	movs	r0, #0
 8003b90:	e8bd 87f0 	ldmia.w	sp!, {r4, r5, r6, r7, r8, r9, sl, pc}
 8003b94:	462a      	mov	r2, r5
 8003b96:	f000 fd4d 	bl	8004634 <_realloc_r>
 8003b9a:	4606      	mov	r6, r0
 8003b9c:	2800      	cmp	r0, #0
 8003b9e:	d1e0      	bne.n	8003b62 <__ssputs_r+0x5a>
 8003ba0:	6921      	ldr	r1, [r4, #16]
 8003ba2:	4650      	mov	r0, sl
 8003ba4:	f7ff feb0 	bl	8003908 <_free_r>
 8003ba8:	230c      	movs	r3, #12
 8003baa:	f8ca 3000 	str.w	r3, [sl]
 8003bae:	89a3      	ldrh	r3, [r4, #12]
 8003bb0:	f043 0340 	orr.w	r3, r3, #64	; 0x40
 8003bb4:	81a3      	strh	r3, [r4, #12]
 8003bb6:	f04f 30ff 	mov.w	r0, #4294967295
 8003bba:	e7e9      	b.n	8003b90 <__ssputs_r+0x88>

08003bbc <_svfiprintf_r>:
 8003bbc:	e92d 4ff0 	stmdb	sp!, {r4, r5, r6, r7, r8, r9, sl, fp, lr}
 8003bc0:	4698      	mov	r8, r3
 8003bc2:	898b      	ldrh	r3, [r1, #12]
 8003bc4:	061b      	lsls	r3, r3, #24
 8003bc6:	b09d      	sub	sp, #116	; 0x74
 8003bc8:	4607      	mov	r7, r0
 8003bca:	460d      	mov	r5, r1
 8003bcc:	4614      	mov	r4, r2
 8003bce:	d50e      	bpl.n	8003bee <_svfiprintf_r+0x32>
 8003bd0:	690b      	ldr	r3, [r1, #16]
 8003bd2:	b963      	cbnz	r3, 8003bee <_svfiprintf_r+0x32>
 8003bd4:	2140      	movs	r1, #64	; 0x40
 8003bd6:	f7ff ff0b 	bl	80039f0 <_malloc_r>
 8003bda:	6028      	str	r0, [r5, #0]
 8003bdc:	6128      	str	r0, [r5, #16]
 8003bde:	b920      	cbnz	r0, 8003bea <_svfiprintf_r+0x2e>
 8003be0:	230c      	movs	r3, #12
 8003be2:	603b      	str	r3, [r7, #0]
 8003be4:	f04f 30ff 	mov.w	r0, #4294967295
 8003be8:	e0d0      	b.n	8003d8c <_svfiprintf_r+0x1d0>
 8003bea:	2340      	movs	r3, #64	; 0x40
 8003bec:	616b      	str	r3, [r5, #20]
 8003bee:	2300      	movs	r3, #0
 8003bf0:	9309      	str	r3, [sp, #36]	; 0x24
 8003bf2:	2320      	movs	r3, #32
 8003bf4:	f88d 3029 	strb.w	r3, [sp, #41]	; 0x29
 8003bf8:	f8cd 800c 	str.w	r8, [sp, #12]
 8003bfc:	2330      	movs	r3, #48	; 0x30
 8003bfe:	f8df 81a4 	ldr.w	r8, [pc, #420]	; 8003da4 <_svfiprintf_r+0x1e8>
 8003c02:	f88d 302a 	strb.w	r3, [sp, #42]	; 0x2a
 8003c06:	f04f 0901 	mov.w	r9, #1
 8003c0a:	4623      	mov	r3, r4
 8003c0c:	469a      	mov	sl, r3
 8003c0e:	f813 2b01 	ldrb.w	r2, [r3], #1
 8003c12:	b10a      	cbz	r2, 8003c18 <_svfiprintf_r+0x5c>
 8003c14:	2a25      	cmp	r2, #37	; 0x25
 8003c16:	d1f9      	bne.n	8003c0c <_svfiprintf_r+0x50>
 8003c18:	ebba 0b04 	subs.w	fp, sl, r4
 8003c1c:	d00b      	beq.n	8003c36 <_svfiprintf_r+0x7a>
 8003c1e:	465b      	mov	r3, fp
 8003c20:	4622      	mov	r2, r4
 8003c22:	4629      	mov	r1, r5
 8003c24:	4638      	mov	r0, r7
 8003c26:	f7ff ff6f 	bl	8003b08 <__ssputs_r>
 8003c2a:	3001      	adds	r0, #1
 8003c2c:	f000 80a9 	beq.w	8003d82 <_svfiprintf_r+0x1c6>
 8003c30:	9a09      	ldr	r2, [sp, #36]	; 0x24
 8003c32:	445a      	add	r2, fp
 8003c34:	9209      	str	r2, [sp, #36]	; 0x24
 8003c36:	f89a 3000 	ldrb.w	r3, [sl]
 8003c3a:	2b00      	cmp	r3, #0
 8003c3c:	f000 80a1 	beq.w	8003d82 <_svfiprintf_r+0x1c6>
 8003c40:	2300      	movs	r3, #0
 8003c42:	f04f 32ff 	mov.w	r2, #4294967295
 8003c46:	e9cd 2305 	strd	r2, r3, [sp, #20]
 8003c4a:	f10a 0a01 	add.w	sl, sl, #1
 8003c4e:	9304      	str	r3, [sp, #16]
 8003c50:	9307      	str	r3, [sp, #28]
 8003c52:	f88d 3053 	strb.w	r3, [sp, #83]	; 0x53
 8003c56:	931a      	str	r3, [sp, #104]	; 0x68
 8003c58:	4654      	mov	r4, sl
 8003c5a:	2205      	movs	r2, #5
 8003c5c:	f814 1b01 	ldrb.w	r1, [r4], #1
 8003c60:	4850      	ldr	r0, [pc, #320]	; (8003da4 <_svfiprintf_r+0x1e8>)
 8003c62:	f7fc fabd 	bl	80001e0 <memchr>
 8003c66:	9a04      	ldr	r2, [sp, #16]
 8003c68:	b9d8      	cbnz	r0, 8003ca2 <_svfiprintf_r+0xe6>
 8003c6a:	06d0      	lsls	r0, r2, #27
 8003c6c:	bf44      	itt	mi
 8003c6e:	2320      	movmi	r3, #32
 8003c70:	f88d 3053 	strbmi.w	r3, [sp, #83]	; 0x53
 8003c74:	0711      	lsls	r1, r2, #28
 8003c76:	bf44      	itt	mi
 8003c78:	232b      	movmi	r3, #43	; 0x2b
 8003c7a:	f88d 3053 	strbmi.w	r3, [sp, #83]	; 0x53
 8003c7e:	f89a 3000 	ldrb.w	r3, [sl]
 8003c82:	2b2a      	cmp	r3, #42	; 0x2a
 8003c84:	d015      	beq.n	8003cb2 <_svfiprintf_r+0xf6>
 8003c86:	9a07      	ldr	r2, [sp, #28]
 8003c88:	4654      	mov	r4, sl
 8003c8a:	2000      	movs	r0, #0
 8003c8c:	f04f 0c0a 	mov.w	ip, #10
 8003c90:	4621      	mov	r1, r4
 8003c92:	f811 3b01 	ldrb.w	r3, [r1], #1
 8003c96:	3b30      	subs	r3, #48	; 0x30
 8003c98:	2b09      	cmp	r3, #9
 8003c9a:	d94d      	bls.n	8003d38 <_svfiprintf_r+0x17c>
 8003c9c:	b1b0      	cbz	r0, 8003ccc <_svfiprintf_r+0x110>
 8003c9e:	9207      	str	r2, [sp, #28]
 8003ca0:	e014      	b.n	8003ccc <_svfiprintf_r+0x110>
 8003ca2:	eba0 0308 	sub.w	r3, r0, r8
 8003ca6:	fa09 f303 	lsl.w	r3, r9, r3
 8003caa:	4313      	orrs	r3, r2
 8003cac:	9304      	str	r3, [sp, #16]
 8003cae:	46a2      	mov	sl, r4
 8003cb0:	e7d2      	b.n	8003c58 <_svfiprintf_r+0x9c>
 8003cb2:	9b03      	ldr	r3, [sp, #12]
 8003cb4:	1d19      	adds	r1, r3, #4
 8003cb6:	681b      	ldr	r3, [r3, #0]
 8003cb8:	9103      	str	r1, [sp, #12]
 8003cba:	2b00      	cmp	r3, #0
 8003cbc:	bfbb      	ittet	lt
 8003cbe:	425b      	neglt	r3, r3
 8003cc0:	f042 0202 	orrlt.w	r2, r2, #2
 8003cc4:	9307      	strge	r3, [sp, #28]
 8003cc6:	9307      	strlt	r3, [sp, #28]
 8003cc8:	bfb8      	it	lt
 8003cca:	9204      	strlt	r2, [sp, #16]
 8003ccc:	7823      	ldrb	r3, [r4, #0]
 8003cce:	2b2e      	cmp	r3, #46	; 0x2e
 8003cd0:	d10c      	bne.n	8003cec <_svfiprintf_r+0x130>
 8003cd2:	7863      	ldrb	r3, [r4, #1]
 8003cd4:	2b2a      	cmp	r3, #42	; 0x2a
 8003cd6:	d134      	bne.n	8003d42 <_svfiprintf_r+0x186>
 8003cd8:	9b03      	ldr	r3, [sp, #12]
 8003cda:	1d1a      	adds	r2, r3, #4
 8003cdc:	681b      	ldr	r3, [r3, #0]
 8003cde:	9203      	str	r2, [sp, #12]
 8003ce0:	2b00      	cmp	r3, #0
 8003ce2:	bfb8      	it	lt
 8003ce4:	f04f 33ff 	movlt.w	r3, #4294967295
 8003ce8:	3402      	adds	r4, #2
 8003cea:	9305      	str	r3, [sp, #20]
 8003cec:	f8df a0c4 	ldr.w	sl, [pc, #196]	; 8003db4 <_svfiprintf_r+0x1f8>
 8003cf0:	7821      	ldrb	r1, [r4, #0]
 8003cf2:	2203      	movs	r2, #3
 8003cf4:	4650      	mov	r0, sl
 8003cf6:	f7fc fa73 	bl	80001e0 <memchr>
 8003cfa:	b138      	cbz	r0, 8003d0c <_svfiprintf_r+0x150>
 8003cfc:	9b04      	ldr	r3, [sp, #16]
 8003cfe:	eba0 000a 	sub.w	r0, r0, sl
 8003d02:	2240      	movs	r2, #64	; 0x40
 8003d04:	4082      	lsls	r2, r0
 8003d06:	4313      	orrs	r3, r2
 8003d08:	3401      	adds	r4, #1
 8003d0a:	9304      	str	r3, [sp, #16]
 8003d0c:	f814 1b01 	ldrb.w	r1, [r4], #1
 8003d10:	4825      	ldr	r0, [pc, #148]	; (8003da8 <_svfiprintf_r+0x1ec>)
 8003d12:	f88d 1028 	strb.w	r1, [sp, #40]	; 0x28
 8003d16:	2206      	movs	r2, #6
 8003d18:	f7fc fa62 	bl	80001e0 <memchr>
 8003d1c:	2800      	cmp	r0, #0
 8003d1e:	d038      	beq.n	8003d92 <_svfiprintf_r+0x1d6>
 8003d20:	4b22      	ldr	r3, [pc, #136]	; (8003dac <_svfiprintf_r+0x1f0>)
 8003d22:	bb1b      	cbnz	r3, 8003d6c <_svfiprintf_r+0x1b0>
 8003d24:	9b03      	ldr	r3, [sp, #12]
 8003d26:	3307      	adds	r3, #7
 8003d28:	f023 0307 	bic.w	r3, r3, #7
 8003d2c:	3308      	adds	r3, #8
 8003d2e:	9303      	str	r3, [sp, #12]
 8003d30:	9b09      	ldr	r3, [sp, #36]	; 0x24
 8003d32:	4433      	add	r3, r6
 8003d34:	9309      	str	r3, [sp, #36]	; 0x24
 8003d36:	e768      	b.n	8003c0a <_svfiprintf_r+0x4e>
 8003d38:	fb0c 3202 	mla	r2, ip, r2, r3
 8003d3c:	460c      	mov	r4, r1
 8003d3e:	2001      	movs	r0, #1
 8003d40:	e7a6      	b.n	8003c90 <_svfiprintf_r+0xd4>
 8003d42:	2300      	movs	r3, #0
 8003d44:	3401      	adds	r4, #1
 8003d46:	9305      	str	r3, [sp, #20]
 8003d48:	4619      	mov	r1, r3
 8003d4a:	f04f 0c0a 	mov.w	ip, #10
 8003d4e:	4620      	mov	r0, r4
 8003d50:	f810 2b01 	ldrb.w	r2, [r0], #1
 8003d54:	3a30      	subs	r2, #48	; 0x30
 8003d56:	2a09      	cmp	r2, #9
 8003d58:	d903      	bls.n	8003d62 <_svfiprintf_r+0x1a6>
 8003d5a:	2b00      	cmp	r3, #0
 8003d5c:	d0c6      	beq.n	8003cec <_svfiprintf_r+0x130>
 8003d5e:	9105      	str	r1, [sp, #20]
 8003d60:	e7c4      	b.n	8003cec <_svfiprintf_r+0x130>
 8003d62:	fb0c 2101 	mla	r1, ip, r1, r2
 8003d66:	4604      	mov	r4, r0
 8003d68:	2301      	movs	r3, #1
 8003d6a:	e7f0      	b.n	8003d4e <_svfiprintf_r+0x192>
 8003d6c:	ab03      	add	r3, sp, #12
 8003d6e:	9300      	str	r3, [sp, #0]
 8003d70:	462a      	mov	r2, r5
 8003d72:	4b0f      	ldr	r3, [pc, #60]	; (8003db0 <_svfiprintf_r+0x1f4>)
 8003d74:	a904      	add	r1, sp, #16
 8003d76:	4638      	mov	r0, r7
 8003d78:	f3af 8000 	nop.w
 8003d7c:	1c42      	adds	r2, r0, #1
 8003d7e:	4606      	mov	r6, r0
 8003d80:	d1d6      	bne.n	8003d30 <_svfiprintf_r+0x174>
 8003d82:	89ab      	ldrh	r3, [r5, #12]
 8003d84:	065b      	lsls	r3, r3, #25
 8003d86:	f53f af2d 	bmi.w	8003be4 <_svfiprintf_r+0x28>
 8003d8a:	9809      	ldr	r0, [sp, #36]	; 0x24
 8003d8c:	b01d      	add	sp, #116	; 0x74
 8003d8e:	e8bd 8ff0 	ldmia.w	sp!, {r4, r5, r6, r7, r8, r9, sl, fp, pc}
 8003d92:	ab03      	add	r3, sp, #12
 8003d94:	9300      	str	r3, [sp, #0]
 8003d96:	462a      	mov	r2, r5
 8003d98:	4b05      	ldr	r3, [pc, #20]	; (8003db0 <_svfiprintf_r+0x1f4>)
 8003d9a:	a904      	add	r1, sp, #16
 8003d9c:	4638      	mov	r0, r7
 8003d9e:	f000 f9bd 	bl	800411c <_printf_i>
 8003da2:	e7eb      	b.n	8003d7c <_svfiprintf_r+0x1c0>
 8003da4:	08004748 	.word	0x08004748
 8003da8:	08004752 	.word	0x08004752
 8003dac:	00000000 	.word	0x00000000
 8003db0:	08003b09 	.word	0x08003b09
 8003db4:	0800474e 	.word	0x0800474e

08003db8 <__sfputc_r>:
 8003db8:	6893      	ldr	r3, [r2, #8]
 8003dba:	3b01      	subs	r3, #1
 8003dbc:	2b00      	cmp	r3, #0
 8003dbe:	b410      	push	{r4}
 8003dc0:	6093      	str	r3, [r2, #8]
 8003dc2:	da08      	bge.n	8003dd6 <__sfputc_r+0x1e>
 8003dc4:	6994      	ldr	r4, [r2, #24]
 8003dc6:	42a3      	cmp	r3, r4
 8003dc8:	db01      	blt.n	8003dce <__sfputc_r+0x16>
 8003dca:	290a      	cmp	r1, #10
 8003dcc:	d103      	bne.n	8003dd6 <__sfputc_r+0x1e>
 8003dce:	f85d 4b04 	ldr.w	r4, [sp], #4
 8003dd2:	f7ff bc88 	b.w	80036e6 <__swbuf_r>
 8003dd6:	6813      	ldr	r3, [r2, #0]
 8003dd8:	1c58      	adds	r0, r3, #1
 8003dda:	6010      	str	r0, [r2, #0]
 8003ddc:	7019      	strb	r1, [r3, #0]
 8003dde:	4608      	mov	r0, r1
 8003de0:	f85d 4b04 	ldr.w	r4, [sp], #4
 8003de4:	4770      	bx	lr

08003de6 <__sfputs_r>:
 8003de6:	b5f8      	push	{r3, r4, r5, r6, r7, lr}
 8003de8:	4606      	mov	r6, r0
 8003dea:	460f      	mov	r7, r1
 8003dec:	4614      	mov	r4, r2
 8003dee:	18d5      	adds	r5, r2, r3
 8003df0:	42ac      	cmp	r4, r5
 8003df2:	d101      	bne.n	8003df8 <__sfputs_r+0x12>
 8003df4:	2000      	movs	r0, #0
 8003df6:	e007      	b.n	8003e08 <__sfputs_r+0x22>
 8003df8:	f814 1b01 	ldrb.w	r1, [r4], #1
 8003dfc:	463a      	mov	r2, r7
 8003dfe:	4630      	mov	r0, r6
 8003e00:	f7ff ffda 	bl	8003db8 <__sfputc_r>
 8003e04:	1c43      	adds	r3, r0, #1
 8003e06:	d1f3      	bne.n	8003df0 <__sfputs_r+0xa>
 8003e08:	bdf8      	pop	{r3, r4, r5, r6, r7, pc}
	...

08003e0c <_vfiprintf_r>:
 8003e0c:	e92d 4ff0 	stmdb	sp!, {r4, r5, r6, r7, r8, r9, sl, fp, lr}
 8003e10:	460d      	mov	r5, r1
 8003e12:	b09d      	sub	sp, #116	; 0x74
 8003e14:	4614      	mov	r4, r2
 8003e16:	4698      	mov	r8, r3
 8003e18:	4606      	mov	r6, r0
 8003e1a:	b118      	cbz	r0, 8003e24 <_vfiprintf_r+0x18>
 8003e1c:	6a03      	ldr	r3, [r0, #32]
 8003e1e:	b90b      	cbnz	r3, 8003e24 <_vfiprintf_r+0x18>
 8003e20:	f7ff faac 	bl	800337c <__sinit>
 8003e24:	6e6b      	ldr	r3, [r5, #100]	; 0x64
 8003e26:	07d9      	lsls	r1, r3, #31
 8003e28:	d405      	bmi.n	8003e36 <_vfiprintf_r+0x2a>
 8003e2a:	89ab      	ldrh	r3, [r5, #12]
 8003e2c:	059a      	lsls	r2, r3, #22
 8003e2e:	d402      	bmi.n	8003e36 <_vfiprintf_r+0x2a>
 8003e30:	6da8      	ldr	r0, [r5, #88]	; 0x58
 8003e32:	f7ff fd66 	bl	8003902 <__retarget_lock_acquire_recursive>
 8003e36:	89ab      	ldrh	r3, [r5, #12]
 8003e38:	071b      	lsls	r3, r3, #28
 8003e3a:	d501      	bpl.n	8003e40 <_vfiprintf_r+0x34>
 8003e3c:	692b      	ldr	r3, [r5, #16]
 8003e3e:	b99b      	cbnz	r3, 8003e68 <_vfiprintf_r+0x5c>
 8003e40:	4629      	mov	r1, r5
 8003e42:	4630      	mov	r0, r6
 8003e44:	f7ff fc8c 	bl	8003760 <__swsetup_r>
 8003e48:	b170      	cbz	r0, 8003e68 <_vfiprintf_r+0x5c>
 8003e4a:	6e6b      	ldr	r3, [r5, #100]	; 0x64
 8003e4c:	07dc      	lsls	r4, r3, #31
 8003e4e:	d504      	bpl.n	8003e5a <_vfiprintf_r+0x4e>
 8003e50:	f04f 30ff 	mov.w	r0, #4294967295
 8003e54:	b01d      	add	sp, #116	; 0x74
 8003e56:	e8bd 8ff0 	ldmia.w	sp!, {r4, r5, r6, r7, r8, r9, sl, fp, pc}
 8003e5a:	89ab      	ldrh	r3, [r5, #12]
 8003e5c:	0598      	lsls	r0, r3, #22
 8003e5e:	d4f7      	bmi.n	8003e50 <_vfiprintf_r+0x44>
 8003e60:	6da8      	ldr	r0, [r5, #88]	; 0x58
 8003e62:	f7ff fd4f 	bl	8003904 <__retarget_lock_release_recursive>
 8003e66:	e7f3      	b.n	8003e50 <_vfiprintf_r+0x44>
 8003e68:	2300      	movs	r3, #0
 8003e6a:	9309      	str	r3, [sp, #36]	; 0x24
 8003e6c:	2320      	movs	r3, #32
 8003e6e:	f88d 3029 	strb.w	r3, [sp, #41]	; 0x29
 8003e72:	f8cd 800c 	str.w	r8, [sp, #12]
 8003e76:	2330      	movs	r3, #48	; 0x30
 8003e78:	f8df 81b0 	ldr.w	r8, [pc, #432]	; 800402c <_vfiprintf_r+0x220>
 8003e7c:	f88d 302a 	strb.w	r3, [sp, #42]	; 0x2a
 8003e80:	f04f 0901 	mov.w	r9, #1
 8003e84:	4623      	mov	r3, r4
 8003e86:	469a      	mov	sl, r3
 8003e88:	f813 2b01 	ldrb.w	r2, [r3], #1
 8003e8c:	b10a      	cbz	r2, 8003e92 <_vfiprintf_r+0x86>
 8003e8e:	2a25      	cmp	r2, #37	; 0x25
 8003e90:	d1f9      	bne.n	8003e86 <_vfiprintf_r+0x7a>
 8003e92:	ebba 0b04 	subs.w	fp, sl, r4
 8003e96:	d00b      	beq.n	8003eb0 <_vfiprintf_r+0xa4>
 8003e98:	465b      	mov	r3, fp
 8003e9a:	4622      	mov	r2, r4
 8003e9c:	4629      	mov	r1, r5
 8003e9e:	4630      	mov	r0, r6
 8003ea0:	f7ff ffa1 	bl	8003de6 <__sfputs_r>
 8003ea4:	3001      	adds	r0, #1
 8003ea6:	f000 80a9 	beq.w	8003ffc <_vfiprintf_r+0x1f0>
 8003eaa:	9a09      	ldr	r2, [sp, #36]	; 0x24
 8003eac:	445a      	add	r2, fp
 8003eae:	9209      	str	r2, [sp, #36]	; 0x24
 8003eb0:	f89a 3000 	ldrb.w	r3, [sl]
 8003eb4:	2b00      	cmp	r3, #0
 8003eb6:	f000 80a1 	beq.w	8003ffc <_vfiprintf_r+0x1f0>
 8003eba:	2300      	movs	r3, #0
 8003ebc:	f04f 32ff 	mov.w	r2, #4294967295
 8003ec0:	e9cd 2305 	strd	r2, r3, [sp, #20]
 8003ec4:	f10a 0a01 	add.w	sl, sl, #1
 8003ec8:	9304      	str	r3, [sp, #16]
 8003eca:	9307      	str	r3, [sp, #28]
 8003ecc:	f88d 3053 	strb.w	r3, [sp, #83]	; 0x53
 8003ed0:	931a      	str	r3, [sp, #104]	; 0x68
 8003ed2:	4654      	mov	r4, sl
 8003ed4:	2205      	movs	r2, #5
 8003ed6:	f814 1b01 	ldrb.w	r1, [r4], #1
 8003eda:	4854      	ldr	r0, [pc, #336]	; (800402c <_vfiprintf_r+0x220>)
 8003edc:	f7fc f980 	bl	80001e0 <memchr>
 8003ee0:	9a04      	ldr	r2, [sp, #16]
 8003ee2:	b9d8      	cbnz	r0, 8003f1c <_vfiprintf_r+0x110>
 8003ee4:	06d1      	lsls	r1, r2, #27
 8003ee6:	bf44      	itt	mi
 8003ee8:	2320      	movmi	r3, #32
 8003eea:	f88d 3053 	strbmi.w	r3, [sp, #83]	; 0x53
 8003eee:	0713      	lsls	r3, r2, #28
 8003ef0:	bf44      	itt	mi
 8003ef2:	232b      	movmi	r3, #43	; 0x2b
 8003ef4:	f88d 3053 	strbmi.w	r3, [sp, #83]	; 0x53
 8003ef8:	f89a 3000 	ldrb.w	r3, [sl]
 8003efc:	2b2a      	cmp	r3, #42	; 0x2a
 8003efe:	d015      	beq.n	8003f2c <_vfiprintf_r+0x120>
 8003f00:	9a07      	ldr	r2, [sp, #28]
 8003f02:	4654      	mov	r4, sl
 8003f04:	2000      	movs	r0, #0
 8003f06:	f04f 0c0a 	mov.w	ip, #10
 8003f0a:	4621      	mov	r1, r4
 8003f0c:	f811 3b01 	ldrb.w	r3, [r1], #1
 8003f10:	3b30      	subs	r3, #48	; 0x30
 8003f12:	2b09      	cmp	r3, #9
 8003f14:	d94d      	bls.n	8003fb2 <_vfiprintf_r+0x1a6>
 8003f16:	b1b0      	cbz	r0, 8003f46 <_vfiprintf_r+0x13a>
 8003f18:	9207      	str	r2, [sp, #28]
 8003f1a:	e014      	b.n	8003f46 <_vfiprintf_r+0x13a>
 8003f1c:	eba0 0308 	sub.w	r3, r0, r8
 8003f20:	fa09 f303 	lsl.w	r3, r9, r3
 8003f24:	4313      	orrs	r3, r2
 8003f26:	9304      	str	r3, [sp, #16]
 8003f28:	46a2      	mov	sl, r4
 8003f2a:	e7d2      	b.n	8003ed2 <_vfiprintf_r+0xc6>
 8003f2c:	9b03      	ldr	r3, [sp, #12]
 8003f2e:	1d19      	adds	r1, r3, #4
 8003f30:	681b      	ldr	r3, [r3, #0]
 8003f32:	9103      	str	r1, [sp, #12]
 8003f34:	2b00      	cmp	r3, #0
 8003f36:	bfbb      	ittet	lt
 8003f38:	425b      	neglt	r3, r3
 8003f3a:	f042 0202 	orrlt.w	r2, r2, #2
 8003f3e:	9307      	strge	r3, [sp, #28]
 8003f40:	9307      	strlt	r3, [sp, #28]
 8003f42:	bfb8      	it	lt
 8003f44:	9204      	strlt	r2, [sp, #16]
 8003f46:	7823      	ldrb	r3, [r4, #0]
 8003f48:	2b2e      	cmp	r3, #46	; 0x2e
 8003f4a:	d10c      	bne.n	8003f66 <_vfiprintf_r+0x15a>
 8003f4c:	7863      	ldrb	r3, [r4, #1]
 8003f4e:	2b2a      	cmp	r3, #42	; 0x2a
 8003f50:	d134      	bne.n	8003fbc <_vfiprintf_r+0x1b0>
 8003f52:	9b03      	ldr	r3, [sp, #12]
 8003f54:	1d1a      	adds	r2, r3, #4
 8003f56:	681b      	ldr	r3, [r3, #0]
 8003f58:	9203      	str	r2, [sp, #12]
 8003f5a:	2b00      	cmp	r3, #0
 8003f5c:	bfb8      	it	lt
 8003f5e:	f04f 33ff 	movlt.w	r3, #4294967295
 8003f62:	3402      	adds	r4, #2
 8003f64:	9305      	str	r3, [sp, #20]
 8003f66:	f8df a0d4 	ldr.w	sl, [pc, #212]	; 800403c <_vfiprintf_r+0x230>
 8003f6a:	7821      	ldrb	r1, [r4, #0]
 8003f6c:	2203      	movs	r2, #3
 8003f6e:	4650      	mov	r0, sl
 8003f70:	f7fc f936 	bl	80001e0 <memchr>
 8003f74:	b138      	cbz	r0, 8003f86 <_vfiprintf_r+0x17a>
 8003f76:	9b04      	ldr	r3, [sp, #16]
 8003f78:	eba0 000a 	sub.w	r0, r0, sl
 8003f7c:	2240      	movs	r2, #64	; 0x40
 8003f7e:	4082      	lsls	r2, r0
 8003f80:	4313      	orrs	r3, r2
 8003f82:	3401      	adds	r4, #1
 8003f84:	9304      	str	r3, [sp, #16]
 8003f86:	f814 1b01 	ldrb.w	r1, [r4], #1
 8003f8a:	4829      	ldr	r0, [pc, #164]	; (8004030 <_vfiprintf_r+0x224>)
 8003f8c:	f88d 1028 	strb.w	r1, [sp, #40]	; 0x28
 8003f90:	2206      	movs	r2, #6
 8003f92:	f7fc f925 	bl	80001e0 <memchr>
 8003f96:	2800      	cmp	r0, #0
 8003f98:	d03f      	beq.n	800401a <_vfiprintf_r+0x20e>
 8003f9a:	4b26      	ldr	r3, [pc, #152]	; (8004034 <_vfiprintf_r+0x228>)
 8003f9c:	bb1b      	cbnz	r3, 8003fe6 <_vfiprintf_r+0x1da>
 8003f9e:	9b03      	ldr	r3, [sp, #12]
 8003fa0:	3307      	adds	r3, #7
 8003fa2:	f023 0307 	bic.w	r3, r3, #7
 8003fa6:	3308      	adds	r3, #8
 8003fa8:	9303      	str	r3, [sp, #12]
 8003faa:	9b09      	ldr	r3, [sp, #36]	; 0x24
 8003fac:	443b      	add	r3, r7
 8003fae:	9309      	str	r3, [sp, #36]	; 0x24
 8003fb0:	e768      	b.n	8003e84 <_vfiprintf_r+0x78>
 8003fb2:	fb0c 3202 	mla	r2, ip, r2, r3
 8003fb6:	460c      	mov	r4, r1
 8003fb8:	2001      	movs	r0, #1
 8003fba:	e7a6      	b.n	8003f0a <_vfiprintf_r+0xfe>
 8003fbc:	2300      	movs	r3, #0
 8003fbe:	3401      	adds	r4, #1
 8003fc0:	9305      	str	r3, [sp, #20]
 8003fc2:	4619      	mov	r1, r3
 8003fc4:	f04f 0c0a 	mov.w	ip, #10
 8003fc8:	4620      	mov	r0, r4
 8003fca:	f810 2b01 	ldrb.w	r2, [r0], #1
 8003fce:	3a30      	subs	r2, #48	; 0x30
 8003fd0:	2a09      	cmp	r2, #9
 8003fd2:	d903      	bls.n	8003fdc <_vfiprintf_r+0x1d0>
 8003fd4:	2b00      	cmp	r3, #0
 8003fd6:	d0c6      	beq.n	8003f66 <_vfiprintf_r+0x15a>
 8003fd8:	9105      	str	r1, [sp, #20]
 8003fda:	e7c4      	b.n	8003f66 <_vfiprintf_r+0x15a>
 8003fdc:	fb0c 2101 	mla	r1, ip, r1, r2
 8003fe0:	4604      	mov	r4, r0
 8003fe2:	2301      	movs	r3, #1
 8003fe4:	e7f0      	b.n	8003fc8 <_vfiprintf_r+0x1bc>
 8003fe6:	ab03      	add	r3, sp, #12
 8003fe8:	9300      	str	r3, [sp, #0]
 8003fea:	462a      	mov	r2, r5
 8003fec:	4b12      	ldr	r3, [pc, #72]	; (8004038 <_vfiprintf_r+0x22c>)
 8003fee:	a904      	add	r1, sp, #16
 8003ff0:	4630      	mov	r0, r6
 8003ff2:	f3af 8000 	nop.w
 8003ff6:	4607      	mov	r7, r0
 8003ff8:	1c78      	adds	r0, r7, #1
 8003ffa:	d1d6      	bne.n	8003faa <_vfiprintf_r+0x19e>
 8003ffc:	6e6b      	ldr	r3, [r5, #100]	; 0x64
 8003ffe:	07d9      	lsls	r1, r3, #31
 8004000:	d405      	bmi.n	800400e <_vfiprintf_r+0x202>
 8004002:	89ab      	ldrh	r3, [r5, #12]
 8004004:	059a      	lsls	r2, r3, #22
 8004006:	d402      	bmi.n	800400e <_vfiprintf_r+0x202>
 8004008:	6da8      	ldr	r0, [r5, #88]	; 0x58
 800400a:	f7ff fc7b 	bl	8003904 <__retarget_lock_release_recursive>
 800400e:	89ab      	ldrh	r3, [r5, #12]
 8004010:	065b      	lsls	r3, r3, #25
 8004012:	f53f af1d 	bmi.w	8003e50 <_vfiprintf_r+0x44>
 8004016:	9809      	ldr	r0, [sp, #36]	; 0x24
 8004018:	e71c      	b.n	8003e54 <_vfiprintf_r+0x48>
 800401a:	ab03      	add	r3, sp, #12
 800401c:	9300      	str	r3, [sp, #0]
 800401e:	462a      	mov	r2, r5
 8004020:	4b05      	ldr	r3, [pc, #20]	; (8004038 <_vfiprintf_r+0x22c>)
 8004022:	a904      	add	r1, sp, #16
 8004024:	4630      	mov	r0, r6
 8004026:	f000 f879 	bl	800411c <_printf_i>
 800402a:	e7e4      	b.n	8003ff6 <_vfiprintf_r+0x1ea>
 800402c:	08004748 	.word	0x08004748
 8004030:	08004752 	.word	0x08004752
 8004034:	00000000 	.word	0x00000000
 8004038:	08003de7 	.word	0x08003de7
 800403c:	0800474e 	.word	0x0800474e

08004040 <_printf_common>:
 8004040:	e92d 47f0 	stmdb	sp!, {r4, r5, r6, r7, r8, r9, sl, lr}
 8004044:	4616      	mov	r6, r2
 8004046:	4699      	mov	r9, r3
 8004048:	688a      	ldr	r2, [r1, #8]
 800404a:	690b      	ldr	r3, [r1, #16]
 800404c:	f8dd 8020 	ldr.w	r8, [sp, #32]
 8004050:	4293      	cmp	r3, r2
 8004052:	bfb8      	it	lt
 8004054:	4613      	movlt	r3, r2
 8004056:	6033      	str	r3, [r6, #0]
 8004058:	f891 2043 	ldrb.w	r2, [r1, #67]	; 0x43
 800405c:	4607      	mov	r7, r0
 800405e:	460c      	mov	r4, r1
 8004060:	b10a      	cbz	r2, 8004066 <_printf_common+0x26>
 8004062:	3301      	adds	r3, #1
 8004064:	6033      	str	r3, [r6, #0]
 8004066:	6823      	ldr	r3, [r4, #0]
 8004068:	0699      	lsls	r1, r3, #26
 800406a:	bf42      	ittt	mi
 800406c:	6833      	ldrmi	r3, [r6, #0]
 800406e:	3302      	addmi	r3, #2
 8004070:	6033      	strmi	r3, [r6, #0]
 8004072:	6825      	ldr	r5, [r4, #0]
 8004074:	f015 0506 	ands.w	r5, r5, #6
 8004078:	d106      	bne.n	8004088 <_printf_common+0x48>
 800407a:	f104 0a19 	add.w	sl, r4, #25
 800407e:	68e3      	ldr	r3, [r4, #12]
 8004080:	6832      	ldr	r2, [r6, #0]
 8004082:	1a9b      	subs	r3, r3, r2
 8004084:	42ab      	cmp	r3, r5
 8004086:	dc26      	bgt.n	80040d6 <_printf_common+0x96>
 8004088:	f894 2043 	ldrb.w	r2, [r4, #67]	; 0x43
 800408c:	1e13      	subs	r3, r2, #0
 800408e:	6822      	ldr	r2, [r4, #0]
 8004090:	bf18      	it	ne
 8004092:	2301      	movne	r3, #1
 8004094:	0692      	lsls	r2, r2, #26
 8004096:	d42b      	bmi.n	80040f0 <_printf_common+0xb0>
 8004098:	f104 0243 	add.w	r2, r4, #67	; 0x43
 800409c:	4649      	mov	r1, r9
 800409e:	4638      	mov	r0, r7
 80040a0:	47c0      	blx	r8
 80040a2:	3001      	adds	r0, #1
 80040a4:	d01e      	beq.n	80040e4 <_printf_common+0xa4>
 80040a6:	6823      	ldr	r3, [r4, #0]
 80040a8:	6922      	ldr	r2, [r4, #16]
 80040aa:	f003 0306 	and.w	r3, r3, #6
 80040ae:	2b04      	cmp	r3, #4
 80040b0:	bf02      	ittt	eq
 80040b2:	68e5      	ldreq	r5, [r4, #12]
 80040b4:	6833      	ldreq	r3, [r6, #0]
 80040b6:	1aed      	subeq	r5, r5, r3
 80040b8:	68a3      	ldr	r3, [r4, #8]
 80040ba:	bf0c      	ite	eq
 80040bc:	ea25 75e5 	biceq.w	r5, r5, r5, asr #31
 80040c0:	2500      	movne	r5, #0
 80040c2:	4293      	cmp	r3, r2
 80040c4:	bfc4      	itt	gt
 80040c6:	1a9b      	subgt	r3, r3, r2
 80040c8:	18ed      	addgt	r5, r5, r3
 80040ca:	2600      	movs	r6, #0
 80040cc:	341a      	adds	r4, #26
 80040ce:	42b5      	cmp	r5, r6
 80040d0:	d11a      	bne.n	8004108 <_printf_common+0xc8>
 80040d2:	2000      	movs	r0, #0
 80040d4:	e008      	b.n	80040e8 <_printf_common+0xa8>
 80040d6:	2301      	movs	r3, #1
 80040d8:	4652      	mov	r2, sl
 80040da:	4649      	mov	r1, r9
 80040dc:	4638      	mov	r0, r7
 80040de:	47c0      	blx	r8
 80040e0:	3001      	adds	r0, #1
 80040e2:	d103      	bne.n	80040ec <_printf_common+0xac>
 80040e4:	f04f 30ff 	mov.w	r0, #4294967295
 80040e8:	e8bd 87f0 	ldmia.w	sp!, {r4, r5, r6, r7, r8, r9, sl, pc}
 80040ec:	3501      	adds	r5, #1
 80040ee:	e7c6      	b.n	800407e <_printf_common+0x3e>
 80040f0:	18e1      	adds	r1, r4, r3
 80040f2:	1c5a      	adds	r2, r3, #1
 80040f4:	2030      	movs	r0, #48	; 0x30
 80040f6:	f881 0043 	strb.w	r0, [r1, #67]	; 0x43
 80040fa:	4422      	add	r2, r4
 80040fc:	f894 1045 	ldrb.w	r1, [r4, #69]	; 0x45
 8004100:	f882 1043 	strb.w	r1, [r2, #67]	; 0x43
 8004104:	3302      	adds	r3, #2
 8004106:	e7c7      	b.n	8004098 <_printf_common+0x58>
 8004108:	2301      	movs	r3, #1
 800410a:	4622      	mov	r2, r4
 800410c:	4649      	mov	r1, r9
 800410e:	4638      	mov	r0, r7
 8004110:	47c0      	blx	r8
 8004112:	3001      	adds	r0, #1
 8004114:	d0e6      	beq.n	80040e4 <_printf_common+0xa4>
 8004116:	3601      	adds	r6, #1
 8004118:	e7d9      	b.n	80040ce <_printf_common+0x8e>
	...

0800411c <_printf_i>:
 800411c:	e92d 47ff 	stmdb	sp!, {r0, r1, r2, r3, r4, r5, r6, r7, r8, r9, sl, lr}
 8004120:	7e0f      	ldrb	r7, [r1, #24]
 8004122:	9d0c      	ldr	r5, [sp, #48]	; 0x30
 8004124:	2f78      	cmp	r7, #120	; 0x78
 8004126:	4691      	mov	r9, r2
 8004128:	4680      	mov	r8, r0
 800412a:	460c      	mov	r4, r1
 800412c:	469a      	mov	sl, r3
 800412e:	f101 0243 	add.w	r2, r1, #67	; 0x43
 8004132:	d807      	bhi.n	8004144 <_printf_i+0x28>
 8004134:	2f62      	cmp	r7, #98	; 0x62
 8004136:	d80a      	bhi.n	800414e <_printf_i+0x32>
 8004138:	2f00      	cmp	r7, #0
 800413a:	f000 80d4 	beq.w	80042e6 <_printf_i+0x1ca>
 800413e:	2f58      	cmp	r7, #88	; 0x58
 8004140:	f000 80c0 	beq.w	80042c4 <_printf_i+0x1a8>
 8004144:	f104 0542 	add.w	r5, r4, #66	; 0x42
 8004148:	f884 7042 	strb.w	r7, [r4, #66]	; 0x42
 800414c:	e03a      	b.n	80041c4 <_printf_i+0xa8>
 800414e:	f1a7 0363 	sub.w	r3, r7, #99	; 0x63
 8004152:	2b15      	cmp	r3, #21
 8004154:	d8f6      	bhi.n	8004144 <_printf_i+0x28>
 8004156:	a101      	add	r1, pc, #4	; (adr r1, 800415c <_printf_i+0x40>)
 8004158:	f851 f023 	ldr.w	pc, [r1, r3, lsl #2]
 800415c:	080041b5 	.word	0x080041b5
 8004160:	080041c9 	.word	0x080041c9
 8004164:	08004145 	.word	0x08004145
 8004168:	08004145 	.word	0x08004145
 800416c:	08004145 	.word	0x08004145
 8004170:	08004145 	.word	0x08004145
 8004174:	080041c9 	.word	0x080041c9
 8004178:	08004145 	.word	0x08004145
 800417c:	08004145 	.word	0x08004145
 8004180:	08004145 	.word	0x08004145
 8004184:	08004145 	.word	0x08004145
 8004188:	080042cd 	.word	0x080042cd
 800418c:	080041f5 	.word	0x080041f5
 8004190:	08004287 	.word	0x08004287
 8004194:	08004145 	.word	0x08004145
 8004198:	08004145 	.word	0x08004145
 800419c:	080042ef 	.word	0x080042ef
 80041a0:	08004145 	.word	0x08004145
 80041a4:	080041f5 	.word	0x080041f5
 80041a8:	08004145 	.word	0x08004145
 80041ac:	08004145 	.word	0x08004145
 80041b0:	0800428f 	.word	0x0800428f
 80041b4:	682b      	ldr	r3, [r5, #0]
 80041b6:	1d1a      	adds	r2, r3, #4
 80041b8:	681b      	ldr	r3, [r3, #0]
 80041ba:	602a      	str	r2, [r5, #0]
 80041bc:	f104 0542 	add.w	r5, r4, #66	; 0x42
 80041c0:	f884 3042 	strb.w	r3, [r4, #66]	; 0x42
 80041c4:	2301      	movs	r3, #1
 80041c6:	e09f      	b.n	8004308 <_printf_i+0x1ec>
 80041c8:	6820      	ldr	r0, [r4, #0]
 80041ca:	682b      	ldr	r3, [r5, #0]
 80041cc:	0607      	lsls	r7, r0, #24
 80041ce:	f103 0104 	add.w	r1, r3, #4
 80041d2:	6029      	str	r1, [r5, #0]
 80041d4:	d501      	bpl.n	80041da <_printf_i+0xbe>
 80041d6:	681e      	ldr	r6, [r3, #0]
 80041d8:	e003      	b.n	80041e2 <_printf_i+0xc6>
 80041da:	0646      	lsls	r6, r0, #25
 80041dc:	d5fb      	bpl.n	80041d6 <_printf_i+0xba>
 80041de:	f9b3 6000 	ldrsh.w	r6, [r3]
 80041e2:	2e00      	cmp	r6, #0
 80041e4:	da03      	bge.n	80041ee <_printf_i+0xd2>
 80041e6:	232d      	movs	r3, #45	; 0x2d
 80041e8:	4276      	negs	r6, r6
 80041ea:	f884 3043 	strb.w	r3, [r4, #67]	; 0x43
 80041ee:	485a      	ldr	r0, [pc, #360]	; (8004358 <_printf_i+0x23c>)
 80041f0:	230a      	movs	r3, #10
 80041f2:	e012      	b.n	800421a <_printf_i+0xfe>
 80041f4:	682b      	ldr	r3, [r5, #0]
 80041f6:	6820      	ldr	r0, [r4, #0]
 80041f8:	1d19      	adds	r1, r3, #4
 80041fa:	6029      	str	r1, [r5, #0]
 80041fc:	0605      	lsls	r5, r0, #24
 80041fe:	d501      	bpl.n	8004204 <_printf_i+0xe8>
 8004200:	681e      	ldr	r6, [r3, #0]
 8004202:	e002      	b.n	800420a <_printf_i+0xee>
 8004204:	0641      	lsls	r1, r0, #25
 8004206:	d5fb      	bpl.n	8004200 <_printf_i+0xe4>
 8004208:	881e      	ldrh	r6, [r3, #0]
 800420a:	4853      	ldr	r0, [pc, #332]	; (8004358 <_printf_i+0x23c>)
 800420c:	2f6f      	cmp	r7, #111	; 0x6f
 800420e:	bf0c      	ite	eq
 8004210:	2308      	moveq	r3, #8
 8004212:	230a      	movne	r3, #10
 8004214:	2100      	movs	r1, #0
 8004216:	f884 1043 	strb.w	r1, [r4, #67]	; 0x43
 800421a:	6865      	ldr	r5, [r4, #4]
 800421c:	60a5      	str	r5, [r4, #8]
 800421e:	2d00      	cmp	r5, #0
 8004220:	bfa2      	ittt	ge
 8004222:	6821      	ldrge	r1, [r4, #0]
 8004224:	f021 0104 	bicge.w	r1, r1, #4
 8004228:	6021      	strge	r1, [r4, #0]
 800422a:	b90e      	cbnz	r6, 8004230 <_printf_i+0x114>
 800422c:	2d00      	cmp	r5, #0
 800422e:	d04b      	beq.n	80042c8 <_printf_i+0x1ac>
 8004230:	4615      	mov	r5, r2
 8004232:	fbb6 f1f3 	udiv	r1, r6, r3
 8004236:	fb03 6711 	mls	r7, r3, r1, r6
 800423a:	5dc7      	ldrb	r7, [r0, r7]
 800423c:	f805 7d01 	strb.w	r7, [r5, #-1]!
 8004240:	4637      	mov	r7, r6
 8004242:	42bb      	cmp	r3, r7
 8004244:	460e      	mov	r6, r1
 8004246:	d9f4      	bls.n	8004232 <_printf_i+0x116>
 8004248:	2b08      	cmp	r3, #8
 800424a:	d10b      	bne.n	8004264 <_printf_i+0x148>
 800424c:	6823      	ldr	r3, [r4, #0]
 800424e:	07de      	lsls	r6, r3, #31
 8004250:	d508      	bpl.n	8004264 <_printf_i+0x148>
 8004252:	6923      	ldr	r3, [r4, #16]
 8004254:	6861      	ldr	r1, [r4, #4]
 8004256:	4299      	cmp	r1, r3
 8004258:	bfde      	ittt	le
 800425a:	2330      	movle	r3, #48	; 0x30
 800425c:	f805 3c01 	strble.w	r3, [r5, #-1]
 8004260:	f105 35ff 	addle.w	r5, r5, #4294967295
 8004264:	1b52      	subs	r2, r2, r5
 8004266:	6122      	str	r2, [r4, #16]
 8004268:	f8cd a000 	str.w	sl, [sp]
 800426c:	464b      	mov	r3, r9
 800426e:	aa03      	add	r2, sp, #12
 8004270:	4621      	mov	r1, r4
 8004272:	4640      	mov	r0, r8
 8004274:	f7ff fee4 	bl	8004040 <_printf_common>
 8004278:	3001      	adds	r0, #1
 800427a:	d14a      	bne.n	8004312 <_printf_i+0x1f6>
 800427c:	f04f 30ff 	mov.w	r0, #4294967295
 8004280:	b004      	add	sp, #16
 8004282:	e8bd 87f0 	ldmia.w	sp!, {r4, r5, r6, r7, r8, r9, sl, pc}
 8004286:	6823      	ldr	r3, [r4, #0]
 8004288:	f043 0320 	orr.w	r3, r3, #32
 800428c:	6023      	str	r3, [r4, #0]
 800428e:	4833      	ldr	r0, [pc, #204]	; (800435c <_printf_i+0x240>)
 8004290:	2778      	movs	r7, #120	; 0x78
 8004292:	f884 7045 	strb.w	r7, [r4, #69]	; 0x45
 8004296:	6823      	ldr	r3, [r4, #0]
 8004298:	6829      	ldr	r1, [r5, #0]
 800429a:	061f      	lsls	r7, r3, #24
 800429c:	f851 6b04 	ldr.w	r6, [r1], #4
 80042a0:	d402      	bmi.n	80042a8 <_printf_i+0x18c>
 80042a2:	065f      	lsls	r7, r3, #25
 80042a4:	bf48      	it	mi
 80042a6:	b2b6      	uxthmi	r6, r6
 80042a8:	07df      	lsls	r7, r3, #31
 80042aa:	bf48      	it	mi
 80042ac:	f043 0320 	orrmi.w	r3, r3, #32
 80042b0:	6029      	str	r1, [r5, #0]
 80042b2:	bf48      	it	mi
 80042b4:	6023      	strmi	r3, [r4, #0]
 80042b6:	b91e      	cbnz	r6, 80042c0 <_printf_i+0x1a4>
 80042b8:	6823      	ldr	r3, [r4, #0]
 80042ba:	f023 0320 	bic.w	r3, r3, #32
 80042be:	6023      	str	r3, [r4, #0]
 80042c0:	2310      	movs	r3, #16
 80042c2:	e7a7      	b.n	8004214 <_printf_i+0xf8>
 80042c4:	4824      	ldr	r0, [pc, #144]	; (8004358 <_printf_i+0x23c>)
 80042c6:	e7e4      	b.n	8004292 <_printf_i+0x176>
 80042c8:	4615      	mov	r5, r2
 80042ca:	e7bd      	b.n	8004248 <_printf_i+0x12c>
 80042cc:	682b      	ldr	r3, [r5, #0]
 80042ce:	6826      	ldr	r6, [r4, #0]
 80042d0:	6961      	ldr	r1, [r4, #20]
 80042d2:	1d18      	adds	r0, r3, #4
 80042d4:	6028      	str	r0, [r5, #0]
 80042d6:	0635      	lsls	r5, r6, #24
 80042d8:	681b      	ldr	r3, [r3, #0]
 80042da:	d501      	bpl.n	80042e0 <_printf_i+0x1c4>
 80042dc:	6019      	str	r1, [r3, #0]
 80042de:	e002      	b.n	80042e6 <_printf_i+0x1ca>
 80042e0:	0670      	lsls	r0, r6, #25
 80042e2:	d5fb      	bpl.n	80042dc <_printf_i+0x1c0>
 80042e4:	8019      	strh	r1, [r3, #0]
 80042e6:	2300      	movs	r3, #0
 80042e8:	6123      	str	r3, [r4, #16]
 80042ea:	4615      	mov	r5, r2
 80042ec:	e7bc      	b.n	8004268 <_printf_i+0x14c>
 80042ee:	682b      	ldr	r3, [r5, #0]
 80042f0:	1d1a      	adds	r2, r3, #4
 80042f2:	602a      	str	r2, [r5, #0]
 80042f4:	681d      	ldr	r5, [r3, #0]
 80042f6:	6862      	ldr	r2, [r4, #4]
 80042f8:	2100      	movs	r1, #0
 80042fa:	4628      	mov	r0, r5
 80042fc:	f7fb ff70 	bl	80001e0 <memchr>
 8004300:	b108      	cbz	r0, 8004306 <_printf_i+0x1ea>
 8004302:	1b40      	subs	r0, r0, r5
 8004304:	6060      	str	r0, [r4, #4]
 8004306:	6863      	ldr	r3, [r4, #4]
 8004308:	6123      	str	r3, [r4, #16]
 800430a:	2300      	movs	r3, #0
 800430c:	f884 3043 	strb.w	r3, [r4, #67]	; 0x43
 8004310:	e7aa      	b.n	8004268 <_printf_i+0x14c>
 8004312:	6923      	ldr	r3, [r4, #16]
 8004314:	462a      	mov	r2, r5
 8004316:	4649      	mov	r1, r9
 8004318:	4640      	mov	r0, r8
 800431a:	47d0      	blx	sl
 800431c:	3001      	adds	r0, #1
 800431e:	d0ad      	beq.n	800427c <_printf_i+0x160>
 8004320:	6823      	ldr	r3, [r4, #0]
 8004322:	079b      	lsls	r3, r3, #30
 8004324:	d413      	bmi.n	800434e <_printf_i+0x232>
 8004326:	68e0      	ldr	r0, [r4, #12]
 8004328:	9b03      	ldr	r3, [sp, #12]
 800432a:	4298      	cmp	r0, r3
 800432c:	bfb8      	it	lt
 800432e:	4618      	movlt	r0, r3
 8004330:	e7a6      	b.n	8004280 <_printf_i+0x164>
 8004332:	2301      	movs	r3, #1
 8004334:	4632      	mov	r2, r6
 8004336:	4649      	mov	r1, r9
 8004338:	4640      	mov	r0, r8
 800433a:	47d0      	blx	sl
 800433c:	3001      	adds	r0, #1
 800433e:	d09d      	beq.n	800427c <_printf_i+0x160>
 8004340:	3501      	adds	r5, #1
 8004342:	68e3      	ldr	r3, [r4, #12]
 8004344:	9903      	ldr	r1, [sp, #12]
 8004346:	1a5b      	subs	r3, r3, r1
 8004348:	42ab      	cmp	r3, r5
 800434a:	dcf2      	bgt.n	8004332 <_printf_i+0x216>
 800434c:	e7eb      	b.n	8004326 <_printf_i+0x20a>
 800434e:	2500      	movs	r5, #0
 8004350:	f104 0619 	add.w	r6, r4, #25
 8004354:	e7f5      	b.n	8004342 <_printf_i+0x226>
 8004356:	bf00      	nop
 8004358:	08004759 	.word	0x08004759
 800435c:	0800476a 	.word	0x0800476a

08004360 <__sflush_r>:
 8004360:	898a      	ldrh	r2, [r1, #12]
 8004362:	e92d 41f0 	stmdb	sp!, {r4, r5, r6, r7, r8, lr}
 8004366:	4605      	mov	r5, r0
 8004368:	0710      	lsls	r0, r2, #28
 800436a:	460c      	mov	r4, r1
 800436c:	d458      	bmi.n	8004420 <__sflush_r+0xc0>
 800436e:	684b      	ldr	r3, [r1, #4]
 8004370:	2b00      	cmp	r3, #0
 8004372:	dc05      	bgt.n	8004380 <__sflush_r+0x20>
 8004374:	6c0b      	ldr	r3, [r1, #64]	; 0x40
 8004376:	2b00      	cmp	r3, #0
 8004378:	dc02      	bgt.n	8004380 <__sflush_r+0x20>
 800437a:	2000      	movs	r0, #0
 800437c:	e8bd 81f0 	ldmia.w	sp!, {r4, r5, r6, r7, r8, pc}
 8004380:	6ae6      	ldr	r6, [r4, #44]	; 0x2c
 8004382:	2e00      	cmp	r6, #0
 8004384:	d0f9      	beq.n	800437a <__sflush_r+0x1a>
 8004386:	2300      	movs	r3, #0
 8004388:	f412 5280 	ands.w	r2, r2, #4096	; 0x1000
 800438c:	682f      	ldr	r7, [r5, #0]
 800438e:	6a21      	ldr	r1, [r4, #32]
 8004390:	602b      	str	r3, [r5, #0]
 8004392:	d032      	beq.n	80043fa <__sflush_r+0x9a>
 8004394:	6d60      	ldr	r0, [r4, #84]	; 0x54
 8004396:	89a3      	ldrh	r3, [r4, #12]
 8004398:	075a      	lsls	r2, r3, #29
 800439a:	d505      	bpl.n	80043a8 <__sflush_r+0x48>
 800439c:	6863      	ldr	r3, [r4, #4]
 800439e:	1ac0      	subs	r0, r0, r3
 80043a0:	6b63      	ldr	r3, [r4, #52]	; 0x34
 80043a2:	b10b      	cbz	r3, 80043a8 <__sflush_r+0x48>
 80043a4:	6c23      	ldr	r3, [r4, #64]	; 0x40
 80043a6:	1ac0      	subs	r0, r0, r3
 80043a8:	2300      	movs	r3, #0
 80043aa:	4602      	mov	r2, r0
 80043ac:	6ae6      	ldr	r6, [r4, #44]	; 0x2c
 80043ae:	6a21      	ldr	r1, [r4, #32]
 80043b0:	4628      	mov	r0, r5
 80043b2:	47b0      	blx	r6
 80043b4:	1c43      	adds	r3, r0, #1
 80043b6:	89a3      	ldrh	r3, [r4, #12]
 80043b8:	d106      	bne.n	80043c8 <__sflush_r+0x68>
 80043ba:	6829      	ldr	r1, [r5, #0]
 80043bc:	291d      	cmp	r1, #29
 80043be:	d82b      	bhi.n	8004418 <__sflush_r+0xb8>
 80043c0:	4a29      	ldr	r2, [pc, #164]	; (8004468 <__sflush_r+0x108>)
 80043c2:	410a      	asrs	r2, r1
 80043c4:	07d6      	lsls	r6, r2, #31
 80043c6:	d427      	bmi.n	8004418 <__sflush_r+0xb8>
 80043c8:	2200      	movs	r2, #0
 80043ca:	6062      	str	r2, [r4, #4]
 80043cc:	04d9      	lsls	r1, r3, #19
 80043ce:	6922      	ldr	r2, [r4, #16]
 80043d0:	6022      	str	r2, [r4, #0]
 80043d2:	d504      	bpl.n	80043de <__sflush_r+0x7e>
 80043d4:	1c42      	adds	r2, r0, #1
 80043d6:	d101      	bne.n	80043dc <__sflush_r+0x7c>
 80043d8:	682b      	ldr	r3, [r5, #0]
 80043da:	b903      	cbnz	r3, 80043de <__sflush_r+0x7e>
 80043dc:	6560      	str	r0, [r4, #84]	; 0x54
 80043de:	6b61      	ldr	r1, [r4, #52]	; 0x34
 80043e0:	602f      	str	r7, [r5, #0]
 80043e2:	2900      	cmp	r1, #0
 80043e4:	d0c9      	beq.n	800437a <__sflush_r+0x1a>
 80043e6:	f104 0344 	add.w	r3, r4, #68	; 0x44
 80043ea:	4299      	cmp	r1, r3
 80043ec:	d002      	beq.n	80043f4 <__sflush_r+0x94>
 80043ee:	4628      	mov	r0, r5
 80043f0:	f7ff fa8a 	bl	8003908 <_free_r>
 80043f4:	2000      	movs	r0, #0
 80043f6:	6360      	str	r0, [r4, #52]	; 0x34
 80043f8:	e7c0      	b.n	800437c <__sflush_r+0x1c>
 80043fa:	2301      	movs	r3, #1
 80043fc:	4628      	mov	r0, r5
 80043fe:	47b0      	blx	r6
 8004400:	1c41      	adds	r1, r0, #1
 8004402:	d1c8      	bne.n	8004396 <__sflush_r+0x36>
 8004404:	682b      	ldr	r3, [r5, #0]
 8004406:	2b00      	cmp	r3, #0
 8004408:	d0c5      	beq.n	8004396 <__sflush_r+0x36>
 800440a:	2b1d      	cmp	r3, #29
 800440c:	d001      	beq.n	8004412 <__sflush_r+0xb2>
 800440e:	2b16      	cmp	r3, #22
 8004410:	d101      	bne.n	8004416 <__sflush_r+0xb6>
 8004412:	602f      	str	r7, [r5, #0]
 8004414:	e7b1      	b.n	800437a <__sflush_r+0x1a>
 8004416:	89a3      	ldrh	r3, [r4, #12]
 8004418:	f043 0340 	orr.w	r3, r3, #64	; 0x40
 800441c:	81a3      	strh	r3, [r4, #12]
 800441e:	e7ad      	b.n	800437c <__sflush_r+0x1c>
 8004420:	690f      	ldr	r7, [r1, #16]
 8004422:	2f00      	cmp	r7, #0
 8004424:	d0a9      	beq.n	800437a <__sflush_r+0x1a>
 8004426:	0793      	lsls	r3, r2, #30
 8004428:	680e      	ldr	r6, [r1, #0]
 800442a:	bf08      	it	eq
 800442c:	694b      	ldreq	r3, [r1, #20]
 800442e:	600f      	str	r7, [r1, #0]
 8004430:	bf18      	it	ne
 8004432:	2300      	movne	r3, #0
 8004434:	eba6 0807 	sub.w	r8, r6, r7
 8004438:	608b      	str	r3, [r1, #8]
 800443a:	f1b8 0f00 	cmp.w	r8, #0
 800443e:	dd9c      	ble.n	800437a <__sflush_r+0x1a>
 8004440:	6a21      	ldr	r1, [r4, #32]
 8004442:	6aa6      	ldr	r6, [r4, #40]	; 0x28
 8004444:	4643      	mov	r3, r8
 8004446:	463a      	mov	r2, r7
 8004448:	4628      	mov	r0, r5
 800444a:	47b0      	blx	r6
 800444c:	2800      	cmp	r0, #0
 800444e:	dc06      	bgt.n	800445e <__sflush_r+0xfe>
 8004450:	89a3      	ldrh	r3, [r4, #12]
 8004452:	f043 0340 	orr.w	r3, r3, #64	; 0x40
 8004456:	81a3      	strh	r3, [r4, #12]
 8004458:	f04f 30ff 	mov.w	r0, #4294967295
 800445c:	e78e      	b.n	800437c <__sflush_r+0x1c>
 800445e:	4407      	add	r7, r0
 8004460:	eba8 0800 	sub.w	r8, r8, r0
 8004464:	e7e9      	b.n	800443a <__sflush_r+0xda>
 8004466:	bf00      	nop
 8004468:	dfbffffe 	.word	0xdfbffffe

0800446c <_fflush_r>:
 800446c:	b538      	push	{r3, r4, r5, lr}
 800446e:	690b      	ldr	r3, [r1, #16]
 8004470:	4605      	mov	r5, r0
 8004472:	460c      	mov	r4, r1
 8004474:	b913      	cbnz	r3, 800447c <_fflush_r+0x10>
 8004476:	2500      	movs	r5, #0
 8004478:	4628      	mov	r0, r5
 800447a:	bd38      	pop	{r3, r4, r5, pc}
 800447c:	b118      	cbz	r0, 8004486 <_fflush_r+0x1a>
 800447e:	6a03      	ldr	r3, [r0, #32]
 8004480:	b90b      	cbnz	r3, 8004486 <_fflush_r+0x1a>
 8004482:	f7fe ff7b 	bl	800337c <__sinit>
 8004486:	f9b4 300c 	ldrsh.w	r3, [r4, #12]
 800448a:	2b00      	cmp	r3, #0
 800448c:	d0f3      	beq.n	8004476 <_fflush_r+0xa>
 800448e:	6e62      	ldr	r2, [r4, #100]	; 0x64
 8004490:	07d0      	lsls	r0, r2, #31
 8004492:	d404      	bmi.n	800449e <_fflush_r+0x32>
 8004494:	0599      	lsls	r1, r3, #22
 8004496:	d402      	bmi.n	800449e <_fflush_r+0x32>
 8004498:	6da0      	ldr	r0, [r4, #88]	; 0x58
 800449a:	f7ff fa32 	bl	8003902 <__retarget_lock_acquire_recursive>
 800449e:	4628      	mov	r0, r5
 80044a0:	4621      	mov	r1, r4
 80044a2:	f7ff ff5d 	bl	8004360 <__sflush_r>
 80044a6:	6e63      	ldr	r3, [r4, #100]	; 0x64
 80044a8:	07da      	lsls	r2, r3, #31
 80044aa:	4605      	mov	r5, r0
 80044ac:	d4e4      	bmi.n	8004478 <_fflush_r+0xc>
 80044ae:	89a3      	ldrh	r3, [r4, #12]
 80044b0:	059b      	lsls	r3, r3, #22
 80044b2:	d4e1      	bmi.n	8004478 <_fflush_r+0xc>
 80044b4:	6da0      	ldr	r0, [r4, #88]	; 0x58
 80044b6:	f7ff fa25 	bl	8003904 <__retarget_lock_release_recursive>
 80044ba:	e7dd      	b.n	8004478 <_fflush_r+0xc>

080044bc <__swhatbuf_r>:
 80044bc:	b570      	push	{r4, r5, r6, lr}
 80044be:	460c      	mov	r4, r1
 80044c0:	f9b1 100e 	ldrsh.w	r1, [r1, #14]
 80044c4:	2900      	cmp	r1, #0
 80044c6:	b096      	sub	sp, #88	; 0x58
 80044c8:	4615      	mov	r5, r2
 80044ca:	461e      	mov	r6, r3
 80044cc:	da0d      	bge.n	80044ea <__swhatbuf_r+0x2e>
 80044ce:	89a3      	ldrh	r3, [r4, #12]
 80044d0:	f013 0f80 	tst.w	r3, #128	; 0x80
 80044d4:	f04f 0100 	mov.w	r1, #0
 80044d8:	bf0c      	ite	eq
 80044da:	f44f 6380 	moveq.w	r3, #1024	; 0x400
 80044de:	2340      	movne	r3, #64	; 0x40
 80044e0:	2000      	movs	r0, #0
 80044e2:	6031      	str	r1, [r6, #0]
 80044e4:	602b      	str	r3, [r5, #0]
 80044e6:	b016      	add	sp, #88	; 0x58
 80044e8:	bd70      	pop	{r4, r5, r6, pc}
 80044ea:	466a      	mov	r2, sp
 80044ec:	f000 f862 	bl	80045b4 <_fstat_r>
 80044f0:	2800      	cmp	r0, #0
 80044f2:	dbec      	blt.n	80044ce <__swhatbuf_r+0x12>
 80044f4:	9901      	ldr	r1, [sp, #4]
 80044f6:	f401 4170 	and.w	r1, r1, #61440	; 0xf000
 80044fa:	f5a1 5300 	sub.w	r3, r1, #8192	; 0x2000
 80044fe:	4259      	negs	r1, r3
 8004500:	4159      	adcs	r1, r3
 8004502:	f44f 6380 	mov.w	r3, #1024	; 0x400
 8004506:	e7eb      	b.n	80044e0 <__swhatbuf_r+0x24>

08004508 <__smakebuf_r>:
 8004508:	898b      	ldrh	r3, [r1, #12]
 800450a:	b573      	push	{r0, r1, r4, r5, r6, lr}
 800450c:	079d      	lsls	r5, r3, #30
 800450e:	4606      	mov	r6, r0
 8004510:	460c      	mov	r4, r1
 8004512:	d507      	bpl.n	8004524 <__smakebuf_r+0x1c>
 8004514:	f104 0347 	add.w	r3, r4, #71	; 0x47
 8004518:	6023      	str	r3, [r4, #0]
 800451a:	6123      	str	r3, [r4, #16]
 800451c:	2301      	movs	r3, #1
 800451e:	6163      	str	r3, [r4, #20]
 8004520:	b002      	add	sp, #8
 8004522:	bd70      	pop	{r4, r5, r6, pc}
 8004524:	ab01      	add	r3, sp, #4
 8004526:	466a      	mov	r2, sp
 8004528:	f7ff ffc8 	bl	80044bc <__swhatbuf_r>
 800452c:	9900      	ldr	r1, [sp, #0]
 800452e:	4605      	mov	r5, r0
 8004530:	4630      	mov	r0, r6
 8004532:	f7ff fa5d 	bl	80039f0 <_malloc_r>
 8004536:	b948      	cbnz	r0, 800454c <__smakebuf_r+0x44>
 8004538:	f9b4 300c 	ldrsh.w	r3, [r4, #12]
 800453c:	059a      	lsls	r2, r3, #22
 800453e:	d4ef      	bmi.n	8004520 <__smakebuf_r+0x18>
 8004540:	f023 0303 	bic.w	r3, r3, #3
 8004544:	f043 0302 	orr.w	r3, r3, #2
 8004548:	81a3      	strh	r3, [r4, #12]
 800454a:	e7e3      	b.n	8004514 <__smakebuf_r+0xc>
 800454c:	89a3      	ldrh	r3, [r4, #12]
 800454e:	6020      	str	r0, [r4, #0]
 8004550:	f043 0380 	orr.w	r3, r3, #128	; 0x80
 8004554:	81a3      	strh	r3, [r4, #12]
 8004556:	9b00      	ldr	r3, [sp, #0]
 8004558:	6163      	str	r3, [r4, #20]
 800455a:	9b01      	ldr	r3, [sp, #4]
 800455c:	6120      	str	r0, [r4, #16]
 800455e:	b15b      	cbz	r3, 8004578 <__smakebuf_r+0x70>
 8004560:	f9b4 100e 	ldrsh.w	r1, [r4, #14]
 8004564:	4630      	mov	r0, r6
 8004566:	f000 f837 	bl	80045d8 <_isatty_r>
 800456a:	b128      	cbz	r0, 8004578 <__smakebuf_r+0x70>
 800456c:	89a3      	ldrh	r3, [r4, #12]
 800456e:	f023 0303 	bic.w	r3, r3, #3
 8004572:	f043 0301 	orr.w	r3, r3, #1
 8004576:	81a3      	strh	r3, [r4, #12]
 8004578:	89a3      	ldrh	r3, [r4, #12]
 800457a:	431d      	orrs	r5, r3
 800457c:	81a5      	strh	r5, [r4, #12]
 800457e:	e7cf      	b.n	8004520 <__smakebuf_r+0x18>

08004580 <memmove>:
 8004580:	4288      	cmp	r0, r1
 8004582:	b510      	push	{r4, lr}
 8004584:	eb01 0402 	add.w	r4, r1, r2
 8004588:	d902      	bls.n	8004590 <memmove+0x10>
 800458a:	4284      	cmp	r4, r0
 800458c:	4623      	mov	r3, r4
 800458e:	d807      	bhi.n	80045a0 <memmove+0x20>
 8004590:	1e43      	subs	r3, r0, #1
 8004592:	42a1      	cmp	r1, r4
 8004594:	d008      	beq.n	80045a8 <memmove+0x28>
 8004596:	f811 2b01 	ldrb.w	r2, [r1], #1
 800459a:	f803 2f01 	strb.w	r2, [r3, #1]!
 800459e:	e7f8      	b.n	8004592 <memmove+0x12>
 80045a0:	4402      	add	r2, r0
 80045a2:	4601      	mov	r1, r0
 80045a4:	428a      	cmp	r2, r1
 80045a6:	d100      	bne.n	80045aa <memmove+0x2a>
 80045a8:	bd10      	pop	{r4, pc}
 80045aa:	f813 4d01 	ldrb.w	r4, [r3, #-1]!
 80045ae:	f802 4d01 	strb.w	r4, [r2, #-1]!
 80045b2:	e7f7      	b.n	80045a4 <memmove+0x24>

080045b4 <_fstat_r>:
 80045b4:	b538      	push	{r3, r4, r5, lr}
 80045b6:	4d07      	ldr	r5, [pc, #28]	; (80045d4 <_fstat_r+0x20>)
 80045b8:	2300      	movs	r3, #0
 80045ba:	4604      	mov	r4, r0
 80045bc:	4608      	mov	r0, r1
 80045be:	4611      	mov	r1, r2
 80045c0:	602b      	str	r3, [r5, #0]
 80045c2:	f7fc fb3a 	bl	8000c3a <_fstat>
 80045c6:	1c43      	adds	r3, r0, #1
 80045c8:	d102      	bne.n	80045d0 <_fstat_r+0x1c>
 80045ca:	682b      	ldr	r3, [r5, #0]
 80045cc:	b103      	cbz	r3, 80045d0 <_fstat_r+0x1c>
 80045ce:	6023      	str	r3, [r4, #0]
 80045d0:	bd38      	pop	{r3, r4, r5, pc}
 80045d2:	bf00      	nop
 80045d4:	20000258 	.word	0x20000258

080045d8 <_isatty_r>:
 80045d8:	b538      	push	{r3, r4, r5, lr}
 80045da:	4d06      	ldr	r5, [pc, #24]	; (80045f4 <_isatty_r+0x1c>)
 80045dc:	2300      	movs	r3, #0
 80045de:	4604      	mov	r4, r0
 80045e0:	4608      	mov	r0, r1
 80045e2:	602b      	str	r3, [r5, #0]
 80045e4:	f7fc fb39 	bl	8000c5a <_isatty>
 80045e8:	1c43      	adds	r3, r0, #1
 80045ea:	d102      	bne.n	80045f2 <_isatty_r+0x1a>
 80045ec:	682b      	ldr	r3, [r5, #0]
 80045ee:	b103      	cbz	r3, 80045f2 <_isatty_r+0x1a>
 80045f0:	6023      	str	r3, [r4, #0]
 80045f2:	bd38      	pop	{r3, r4, r5, pc}
 80045f4:	20000258 	.word	0x20000258

080045f8 <_sbrk_r>:
 80045f8:	b538      	push	{r3, r4, r5, lr}
 80045fa:	4d06      	ldr	r5, [pc, #24]	; (8004614 <_sbrk_r+0x1c>)
 80045fc:	2300      	movs	r3, #0
 80045fe:	4604      	mov	r4, r0
 8004600:	4608      	mov	r0, r1
 8004602:	602b      	str	r3, [r5, #0]
 8004604:	f7fc fb42 	bl	8000c8c <_sbrk>
 8004608:	1c43      	adds	r3, r0, #1
 800460a:	d102      	bne.n	8004612 <_sbrk_r+0x1a>
 800460c:	682b      	ldr	r3, [r5, #0]
 800460e:	b103      	cbz	r3, 8004612 <_sbrk_r+0x1a>
 8004610:	6023      	str	r3, [r4, #0]
 8004612:	bd38      	pop	{r3, r4, r5, pc}
 8004614:	20000258 	.word	0x20000258

08004618 <memcpy>:
 8004618:	440a      	add	r2, r1
 800461a:	4291      	cmp	r1, r2
 800461c:	f100 33ff 	add.w	r3, r0, #4294967295
 8004620:	d100      	bne.n	8004624 <memcpy+0xc>
 8004622:	4770      	bx	lr
 8004624:	b510      	push	{r4, lr}
 8004626:	f811 4b01 	ldrb.w	r4, [r1], #1
 800462a:	f803 4f01 	strb.w	r4, [r3, #1]!
 800462e:	4291      	cmp	r1, r2
 8004630:	d1f9      	bne.n	8004626 <memcpy+0xe>
 8004632:	bd10      	pop	{r4, pc}

08004634 <_realloc_r>:
 8004634:	e92d 41f0 	stmdb	sp!, {r4, r5, r6, r7, r8, lr}
 8004638:	4680      	mov	r8, r0
 800463a:	4614      	mov	r4, r2
 800463c:	460e      	mov	r6, r1
 800463e:	b921      	cbnz	r1, 800464a <_realloc_r+0x16>
 8004640:	e8bd 41f0 	ldmia.w	sp!, {r4, r5, r6, r7, r8, lr}
 8004644:	4611      	mov	r1, r2
 8004646:	f7ff b9d3 	b.w	80039f0 <_malloc_r>
 800464a:	b92a      	cbnz	r2, 8004658 <_realloc_r+0x24>
 800464c:	f7ff f95c 	bl	8003908 <_free_r>
 8004650:	4625      	mov	r5, r4
 8004652:	4628      	mov	r0, r5
 8004654:	e8bd 81f0 	ldmia.w	sp!, {r4, r5, r6, r7, r8, pc}
 8004658:	f000 f81b 	bl	8004692 <_malloc_usable_size_r>
 800465c:	4284      	cmp	r4, r0
 800465e:	4607      	mov	r7, r0
 8004660:	d802      	bhi.n	8004668 <_realloc_r+0x34>
 8004662:	ebb4 0f50 	cmp.w	r4, r0, lsr #1
 8004666:	d812      	bhi.n	800468e <_realloc_r+0x5a>
 8004668:	4621      	mov	r1, r4
 800466a:	4640      	mov	r0, r8
 800466c:	f7ff f9c0 	bl	80039f0 <_malloc_r>
 8004670:	4605      	mov	r5, r0
 8004672:	2800      	cmp	r0, #0
 8004674:	d0ed      	beq.n	8004652 <_realloc_r+0x1e>
 8004676:	42bc      	cmp	r4, r7
 8004678:	4622      	mov	r2, r4
 800467a:	4631      	mov	r1, r6
 800467c:	bf28      	it	cs
 800467e:	463a      	movcs	r2, r7
 8004680:	f7ff ffca 	bl	8004618 <memcpy>
 8004684:	4631      	mov	r1, r6
 8004686:	4640      	mov	r0, r8
 8004688:	f7ff f93e 	bl	8003908 <_free_r>
 800468c:	e7e1      	b.n	8004652 <_realloc_r+0x1e>
 800468e:	4635      	mov	r5, r6
 8004690:	e7df      	b.n	8004652 <_realloc_r+0x1e>

08004692 <_malloc_usable_size_r>:
 8004692:	f851 3c04 	ldr.w	r3, [r1, #-4]
 8004696:	1f18      	subs	r0, r3, #4
 8004698:	2b00      	cmp	r3, #0
 800469a:	bfbc      	itt	lt
 800469c:	580b      	ldrlt	r3, [r1, r0]
 800469e:	18c0      	addlt	r0, r0, r3
 80046a0:	4770      	bx	lr
	...

080046a4 <_init>:
 80046a4:	b5f8      	push	{r3, r4, r5, r6, r7, lr}
 80046a6:	bf00      	nop
 80046a8:	bcf8      	pop	{r3, r4, r5, r6, r7}
 80046aa:	bc08      	pop	{r3}
 80046ac:	469e      	mov	lr, r3
 80046ae:	4770      	bx	lr

080046b0 <_fini>:
 80046b0:	b5f8      	push	{r3, r4, r5, r6, r7, lr}
 80046b2:	bf00      	nop
 80046b4:	bcf8      	pop	{r3, r4, r5, r6, r7}
 80046b6:	bc08      	pop	{r3}
 80046b8:	469e      	mov	lr, r3
 80046ba:	4770      	bx	lr
